
Try2-1.elf:     file format elf32-avr

Sections:
Idx Name          Size      VMA       LMA       File off  Algn
  0 .text         0000279a  00000000  00000000  00000094  2**1
                  CONTENTS, ALLOC, LOAD, READONLY, CODE
  1 .data         00000008  00800060  0000279a  0000282e  2**0
                  CONTENTS, ALLOC, LOAD, DATA
  2 .bss          00000013  00800068  00800068  00002836  2**0
                  ALLOC
  3 .debug_aranges 00000020  00000000  00000000  00002836  2**0
                  CONTENTS, READONLY, DEBUGGING
  4 .debug_pubnames 00000236  00000000  00000000  00002856  2**0
                  CONTENTS, READONLY, DEBUGGING
  5 .debug_info   00000a4f  00000000  00000000  00002a8c  2**0
                  CONTENTS, READONLY, DEBUGGING
  6 .debug_abbrev 00000177  00000000  00000000  000034db  2**0
                  CONTENTS, READONLY, DEBUGGING
  7 .debug_line   00000ec5  00000000  00000000  00003652  2**0
                  CONTENTS, READONLY, DEBUGGING
  8 .debug_frame  000001e0  00000000  00000000  00004518  2**2
                  CONTENTS, READONLY, DEBUGGING
  9 .debug_str    00000261  00000000  00000000  000046f8  2**0
                  CONTENTS, READONLY, DEBUGGING

Disassembly of section .text:

00000000 <__vectors>:
       0:	0c 94 2a 00 	jmp	0x54	; 0x54 <__ctors_end>
       4:	0c 94 47 00 	jmp	0x8e	; 0x8e <__bad_interrupt>
       8:	0c 94 47 00 	jmp	0x8e	; 0x8e <__bad_interrupt>
       c:	0c 94 47 00 	jmp	0x8e	; 0x8e <__bad_interrupt>
      10:	0c 94 47 00 	jmp	0x8e	; 0x8e <__bad_interrupt>
      14:	0c 94 47 00 	jmp	0x8e	; 0x8e <__bad_interrupt>
      18:	0c 94 47 00 	jmp	0x8e	; 0x8e <__bad_interrupt>
      1c:	0c 94 47 00 	jmp	0x8e	; 0x8e <__bad_interrupt>
      20:	0c 94 47 00 	jmp	0x8e	; 0x8e <__bad_interrupt>
      24:	0c 94 47 00 	jmp	0x8e	; 0x8e <__bad_interrupt>
      28:	0c 94 47 00 	jmp	0x8e	; 0x8e <__bad_interrupt>
      2c:	0c 94 47 00 	jmp	0x8e	; 0x8e <__bad_interrupt>
      30:	0c 94 47 00 	jmp	0x8e	; 0x8e <__bad_interrupt>
      34:	0c 94 47 00 	jmp	0x8e	; 0x8e <__bad_interrupt>
      38:	0c 94 47 00 	jmp	0x8e	; 0x8e <__bad_interrupt>
      3c:	0c 94 47 00 	jmp	0x8e	; 0x8e <__bad_interrupt>
      40:	0c 94 47 00 	jmp	0x8e	; 0x8e <__bad_interrupt>
      44:	0c 94 47 00 	jmp	0x8e	; 0x8e <__bad_interrupt>
      48:	0c 94 47 00 	jmp	0x8e	; 0x8e <__bad_interrupt>
      4c:	0c 94 47 00 	jmp	0x8e	; 0x8e <__bad_interrupt>
      50:	0c 94 47 00 	jmp	0x8e	; 0x8e <__bad_interrupt>

00000054 <__ctors_end>:
      54:	11 24       	eor	r1, r1
      56:	1f be       	out	0x3f, r1	; 63
      58:	cf e5       	ldi	r28, 0x5F	; 95
      5a:	d4 e0       	ldi	r29, 0x04	; 4
      5c:	de bf       	out	0x3e, r29	; 62
      5e:	cd bf       	out	0x3d, r28	; 61

00000060 <__do_clear_bss>:
      60:	10 e0       	ldi	r17, 0x00	; 0
      62:	a8 e6       	ldi	r26, 0x68	; 104
      64:	b0 e0       	ldi	r27, 0x00	; 0
      66:	01 c0       	rjmp	.+2      	; 0x6a <.do_clear_bss_start>

00000068 <.do_clear_bss_loop>:
      68:	1d 92       	st	X+, r1

0000006a <.do_clear_bss_start>:
      6a:	ab 37       	cpi	r26, 0x7B	; 123
      6c:	b1 07       	cpc	r27, r17
      6e:	e1 f7       	brne	.-8      	; 0x68 <.do_clear_bss_loop>

00000070 <__do_copy_data>:
      70:	10 e0       	ldi	r17, 0x00	; 0
      72:	a0 e6       	ldi	r26, 0x60	; 96
      74:	b0 e0       	ldi	r27, 0x00	; 0
      76:	ea e9       	ldi	r30, 0x9A	; 154
      78:	f7 e2       	ldi	r31, 0x27	; 39
      7a:	02 c0       	rjmp	.+4      	; 0x80 <.do_copy_data_start>

0000007c <.do_copy_data_loop>:
      7c:	05 90       	lpm	r0, Z+
      7e:	0d 92       	st	X+, r0

00000080 <.do_copy_data_start>:
      80:	a8 36       	cpi	r26, 0x68	; 104
      82:	b1 07       	cpc	r27, r17
      84:	d9 f7       	brne	.-10     	; 0x7c <.do_copy_data_loop>
      86:	0e 94 47 0b 	call	0x168e	; 0x168e <main>
      8a:	0c 94 cb 13 	jmp	0x2796	; 0x2796 <_exit>

0000008e <__bad_interrupt>:
      8e:	0c 94 00 00 	jmp	0	; 0x0 <__vectors>

00000092 <lcd_set_4bit>:
int i;


//Function to Reset LCD
void lcd_set_4bit()
{
      92:	0f 93       	push	r16
      94:	1f 93       	push	r17
      96:	df 93       	push	r29
      98:	cf 93       	push	r28
      9a:	cd b7       	in	r28, 0x3d	; 61
      9c:	de b7       	in	r29, 0x3e	; 62
      9e:	c0 57       	subi	r28, 0x70	; 112
      a0:	d0 40       	sbci	r29, 0x00	; 0
      a2:	0f b6       	in	r0, 0x3f	; 63
      a4:	f8 94       	cli
      a6:	de bf       	out	0x3e, r29	; 62
      a8:	0f be       	out	0x3f, r0	; 63
      aa:	cd bf       	out	0x3d, r28	; 61
      ac:	fe 01       	movw	r30, r28
      ae:	e3 59       	subi	r30, 0x93	; 147
      b0:	ff 4f       	sbci	r31, 0xFF	; 255
      b2:	80 e0       	ldi	r24, 0x00	; 0
      b4:	90 e0       	ldi	r25, 0x00	; 0
      b6:	a0 e8       	ldi	r26, 0x80	; 128
      b8:	bf e3       	ldi	r27, 0x3F	; 63
      ba:	80 83       	st	Z, r24
      bc:	91 83       	std	Z+1, r25	; 0x01
      be:	a2 83       	std	Z+2, r26	; 0x02
      c0:	b3 83       	std	Z+3, r27	; 0x03
 */
void
_delay_ms(double __ms)
{
	uint16_t __ticks;
	double __tmp = ((F_CPU) / 4e3) * __ms;
      c2:	8e 01       	movw	r16, r28
      c4:	07 59       	subi	r16, 0x97	; 151
      c6:	1f 4f       	sbci	r17, 0xFF	; 255
      c8:	fe 01       	movw	r30, r28
      ca:	e3 59       	subi	r30, 0x93	; 147
      cc:	ff 4f       	sbci	r31, 0xFF	; 255
      ce:	60 81       	ld	r22, Z
      d0:	71 81       	ldd	r23, Z+1	; 0x01
      d2:	82 81       	ldd	r24, Z+2	; 0x02
      d4:	93 81       	ldd	r25, Z+3	; 0x03
      d6:	26 e6       	ldi	r18, 0x66	; 102
      d8:	36 e6       	ldi	r19, 0x66	; 102
      da:	46 ee       	ldi	r20, 0xE6	; 230
      dc:	54 e4       	ldi	r21, 0x44	; 68
      de:	0e 94 fc 0f 	call	0x1ff8	; 0x1ff8 <__mulsf3>
      e2:	dc 01       	movw	r26, r24
      e4:	cb 01       	movw	r24, r22
      e6:	f8 01       	movw	r30, r16
      e8:	80 83       	st	Z, r24
      ea:	91 83       	std	Z+1, r25	; 0x01
      ec:	a2 83       	std	Z+2, r26	; 0x02
      ee:	b3 83       	std	Z+3, r27	; 0x03
	if (__tmp < 1.0)
      f0:	fe 01       	movw	r30, r28
      f2:	e7 59       	subi	r30, 0x97	; 151
      f4:	ff 4f       	sbci	r31, 0xFF	; 255
      f6:	60 81       	ld	r22, Z
      f8:	71 81       	ldd	r23, Z+1	; 0x01
      fa:	82 81       	ldd	r24, Z+2	; 0x02
      fc:	93 81       	ldd	r25, Z+3	; 0x03
      fe:	20 e0       	ldi	r18, 0x00	; 0
     100:	30 e0       	ldi	r19, 0x00	; 0
     102:	40 e8       	ldi	r20, 0x80	; 128
     104:	5f e3       	ldi	r21, 0x3F	; 63
     106:	0e 94 56 11 	call	0x22ac	; 0x22ac <__ltsf2>
     10a:	88 23       	and	r24, r24
     10c:	44 f4       	brge	.+16     	; 0x11e <lcd_set_4bit+0x8c>
		__ticks = 1;
     10e:	fe 01       	movw	r30, r28
     110:	e9 59       	subi	r30, 0x99	; 153
     112:	ff 4f       	sbci	r31, 0xFF	; 255
     114:	81 e0       	ldi	r24, 0x01	; 1
     116:	90 e0       	ldi	r25, 0x00	; 0
     118:	91 83       	std	Z+1, r25	; 0x01
     11a:	80 83       	st	Z, r24
     11c:	64 c0       	rjmp	.+200    	; 0x1e6 <lcd_set_4bit+0x154>
	else if (__tmp > 65535)
     11e:	fe 01       	movw	r30, r28
     120:	e7 59       	subi	r30, 0x97	; 151
     122:	ff 4f       	sbci	r31, 0xFF	; 255
     124:	60 81       	ld	r22, Z
     126:	71 81       	ldd	r23, Z+1	; 0x01
     128:	82 81       	ldd	r24, Z+2	; 0x02
     12a:	93 81       	ldd	r25, Z+3	; 0x03
     12c:	20 e0       	ldi	r18, 0x00	; 0
     12e:	3f ef       	ldi	r19, 0xFF	; 255
     130:	4f e7       	ldi	r20, 0x7F	; 127
     132:	57 e4       	ldi	r21, 0x47	; 71
     134:	0e 94 f6 10 	call	0x21ec	; 0x21ec <__gtsf2>
     138:	18 16       	cp	r1, r24
     13a:	0c f0       	brlt	.+2      	; 0x13e <lcd_set_4bit+0xac>
     13c:	43 c0       	rjmp	.+134    	; 0x1c4 <lcd_set_4bit+0x132>
	{
		//	__ticks = requested delay in 1/10 ms
		__ticks = (uint16_t) (__ms * 10.0);
     13e:	fe 01       	movw	r30, r28
     140:	e3 59       	subi	r30, 0x93	; 147
     142:	ff 4f       	sbci	r31, 0xFF	; 255
     144:	60 81       	ld	r22, Z
     146:	71 81       	ldd	r23, Z+1	; 0x01
     148:	82 81       	ldd	r24, Z+2	; 0x02
     14a:	93 81       	ldd	r25, Z+3	; 0x03
     14c:	20 e0       	ldi	r18, 0x00	; 0
     14e:	30 e0       	ldi	r19, 0x00	; 0
     150:	40 e2       	ldi	r20, 0x20	; 32
     152:	51 e4       	ldi	r21, 0x41	; 65
     154:	0e 94 fc 0f 	call	0x1ff8	; 0x1ff8 <__mulsf3>
     158:	dc 01       	movw	r26, r24
     15a:	cb 01       	movw	r24, r22
     15c:	8e 01       	movw	r16, r28
     15e:	09 59       	subi	r16, 0x99	; 153
     160:	1f 4f       	sbci	r17, 0xFF	; 255
     162:	bc 01       	movw	r22, r24
     164:	cd 01       	movw	r24, r26
     166:	0e 94 26 0e 	call	0x1c4c	; 0x1c4c <__fixunssfsi>
     16a:	dc 01       	movw	r26, r24
     16c:	cb 01       	movw	r24, r22
     16e:	f8 01       	movw	r30, r16
     170:	91 83       	std	Z+1, r25	; 0x01
     172:	80 83       	st	Z, r24
     174:	1f c0       	rjmp	.+62     	; 0x1b4 <lcd_set_4bit+0x122>
     176:	fe 01       	movw	r30, r28
     178:	eb 59       	subi	r30, 0x9B	; 155
     17a:	ff 4f       	sbci	r31, 0xFF	; 255
     17c:	88 eb       	ldi	r24, 0xB8	; 184
     17e:	90 e0       	ldi	r25, 0x00	; 0
     180:	91 83       	std	Z+1, r25	; 0x01
     182:	80 83       	st	Z, r24
    milliseconds can be achieved.
 */
void
_delay_loop_2(uint16_t __count)
{
	__asm__ volatile (
     184:	fe 01       	movw	r30, r28
     186:	eb 59       	subi	r30, 0x9B	; 155
     188:	ff 4f       	sbci	r31, 0xFF	; 255
     18a:	80 81       	ld	r24, Z
     18c:	91 81       	ldd	r25, Z+1	; 0x01
     18e:	01 97       	sbiw	r24, 0x01	; 1
     190:	f1 f7       	brne	.-4      	; 0x18e <lcd_set_4bit+0xfc>
     192:	fe 01       	movw	r30, r28
     194:	eb 59       	subi	r30, 0x9B	; 155
     196:	ff 4f       	sbci	r31, 0xFF	; 255
     198:	91 83       	std	Z+1, r25	; 0x01
     19a:	80 83       	st	Z, r24
		while(__ticks)
		{
			// wait 1/10 ms
			_delay_loop_2(((F_CPU) / 4e3) / 10);
			__ticks --;
     19c:	de 01       	movw	r26, r28
     19e:	a9 59       	subi	r26, 0x99	; 153
     1a0:	bf 4f       	sbci	r27, 0xFF	; 255
     1a2:	fe 01       	movw	r30, r28
     1a4:	e9 59       	subi	r30, 0x99	; 153
     1a6:	ff 4f       	sbci	r31, 0xFF	; 255
     1a8:	80 81       	ld	r24, Z
     1aa:	91 81       	ldd	r25, Z+1	; 0x01
     1ac:	01 97       	sbiw	r24, 0x01	; 1
     1ae:	11 96       	adiw	r26, 0x01	; 1
     1b0:	9c 93       	st	X, r25
     1b2:	8e 93       	st	-X, r24
		__ticks = 1;
	else if (__tmp > 65535)
	{
		//	__ticks = requested delay in 1/10 ms
		__ticks = (uint16_t) (__ms * 10.0);
		while(__ticks)
     1b4:	fe 01       	movw	r30, r28
     1b6:	e9 59       	subi	r30, 0x99	; 153
     1b8:	ff 4f       	sbci	r31, 0xFF	; 255
     1ba:	80 81       	ld	r24, Z
     1bc:	91 81       	ldd	r25, Z+1	; 0x01
     1be:	00 97       	sbiw	r24, 0x00	; 0
     1c0:	d1 f6       	brne	.-76     	; 0x176 <lcd_set_4bit+0xe4>
     1c2:	27 c0       	rjmp	.+78     	; 0x212 <lcd_set_4bit+0x180>
			__ticks --;
		}
		return;
	}
	else
		__ticks = (uint16_t)__tmp;
     1c4:	8e 01       	movw	r16, r28
     1c6:	09 59       	subi	r16, 0x99	; 153
     1c8:	1f 4f       	sbci	r17, 0xFF	; 255
     1ca:	fe 01       	movw	r30, r28
     1cc:	e7 59       	subi	r30, 0x97	; 151
     1ce:	ff 4f       	sbci	r31, 0xFF	; 255
     1d0:	60 81       	ld	r22, Z
     1d2:	71 81       	ldd	r23, Z+1	; 0x01
     1d4:	82 81       	ldd	r24, Z+2	; 0x02
     1d6:	93 81       	ldd	r25, Z+3	; 0x03
     1d8:	0e 94 26 0e 	call	0x1c4c	; 0x1c4c <__fixunssfsi>
     1dc:	dc 01       	movw	r26, r24
     1de:	cb 01       	movw	r24, r22
     1e0:	f8 01       	movw	r30, r16
     1e2:	91 83       	std	Z+1, r25	; 0x01
     1e4:	80 83       	st	Z, r24
     1e6:	de 01       	movw	r26, r28
     1e8:	ad 59       	subi	r26, 0x9D	; 157
     1ea:	bf 4f       	sbci	r27, 0xFF	; 255
     1ec:	fe 01       	movw	r30, r28
     1ee:	e9 59       	subi	r30, 0x99	; 153
     1f0:	ff 4f       	sbci	r31, 0xFF	; 255
     1f2:	80 81       	ld	r24, Z
     1f4:	91 81       	ldd	r25, Z+1	; 0x01
     1f6:	8d 93       	st	X+, r24
     1f8:	9c 93       	st	X, r25
     1fa:	fe 01       	movw	r30, r28
     1fc:	ed 59       	subi	r30, 0x9D	; 157
     1fe:	ff 4f       	sbci	r31, 0xFF	; 255
     200:	80 81       	ld	r24, Z
     202:	91 81       	ldd	r25, Z+1	; 0x01
     204:	01 97       	sbiw	r24, 0x01	; 1
     206:	f1 f7       	brne	.-4      	; 0x204 <lcd_set_4bit+0x172>
     208:	fe 01       	movw	r30, r28
     20a:	ed 59       	subi	r30, 0x9D	; 157
     20c:	ff 4f       	sbci	r31, 0xFF	; 255
     20e:	91 83       	std	Z+1, r25	; 0x01
     210:	80 83       	st	Z, r24
	_delay_ms(1);

	cbit(lcd_port,RS);				//RS=0 --- Command Input
     212:	a5 e3       	ldi	r26, 0x35	; 53
     214:	b0 e0       	ldi	r27, 0x00	; 0
     216:	e5 e3       	ldi	r30, 0x35	; 53
     218:	f0 e0       	ldi	r31, 0x00	; 0
     21a:	80 81       	ld	r24, Z
     21c:	8e 7f       	andi	r24, 0xFE	; 254
     21e:	8c 93       	st	X, r24
	cbit(lcd_port,RW);				//RW=0 --- Writing to LCD
     220:	a5 e3       	ldi	r26, 0x35	; 53
     222:	b0 e0       	ldi	r27, 0x00	; 0
     224:	e5 e3       	ldi	r30, 0x35	; 53
     226:	f0 e0       	ldi	r31, 0x00	; 0
     228:	80 81       	ld	r24, Z
     22a:	8d 7f       	andi	r24, 0xFD	; 253
     22c:	8c 93       	st	X, r24
	lcd_port = 0x30;				//Sending 3 in the upper nibble
     22e:	e5 e3       	ldi	r30, 0x35	; 53
     230:	f0 e0       	ldi	r31, 0x00	; 0
     232:	80 e3       	ldi	r24, 0x30	; 48
     234:	80 83       	st	Z, r24
	sbit(lcd_port,EN);				//Set Enable Pin
     236:	a5 e3       	ldi	r26, 0x35	; 53
     238:	b0 e0       	ldi	r27, 0x00	; 0
     23a:	e5 e3       	ldi	r30, 0x35	; 53
     23c:	f0 e0       	ldi	r31, 0x00	; 0
     23e:	80 81       	ld	r24, Z
     240:	84 60       	ori	r24, 0x04	; 4
     242:	8c 93       	st	X, r24
     244:	fe 01       	movw	r30, r28
     246:	e1 5a       	subi	r30, 0xA1	; 161
     248:	ff 4f       	sbci	r31, 0xFF	; 255
     24a:	80 e0       	ldi	r24, 0x00	; 0
     24c:	90 e0       	ldi	r25, 0x00	; 0
     24e:	a0 ea       	ldi	r26, 0xA0	; 160
     250:	b0 e4       	ldi	r27, 0x40	; 64
     252:	80 83       	st	Z, r24
     254:	91 83       	std	Z+1, r25	; 0x01
     256:	a2 83       	std	Z+2, r26	; 0x02
     258:	b3 83       	std	Z+3, r27	; 0x03
 */
void
_delay_ms(double __ms)
{
	uint16_t __ticks;
	double __tmp = ((F_CPU) / 4e3) * __ms;
     25a:	8e 01       	movw	r16, r28
     25c:	05 5a       	subi	r16, 0xA5	; 165
     25e:	1f 4f       	sbci	r17, 0xFF	; 255
     260:	fe 01       	movw	r30, r28
     262:	e1 5a       	subi	r30, 0xA1	; 161
     264:	ff 4f       	sbci	r31, 0xFF	; 255
     266:	60 81       	ld	r22, Z
     268:	71 81       	ldd	r23, Z+1	; 0x01
     26a:	82 81       	ldd	r24, Z+2	; 0x02
     26c:	93 81       	ldd	r25, Z+3	; 0x03
     26e:	26 e6       	ldi	r18, 0x66	; 102
     270:	36 e6       	ldi	r19, 0x66	; 102
     272:	46 ee       	ldi	r20, 0xE6	; 230
     274:	54 e4       	ldi	r21, 0x44	; 68
     276:	0e 94 fc 0f 	call	0x1ff8	; 0x1ff8 <__mulsf3>
     27a:	dc 01       	movw	r26, r24
     27c:	cb 01       	movw	r24, r22
     27e:	f8 01       	movw	r30, r16
     280:	80 83       	st	Z, r24
     282:	91 83       	std	Z+1, r25	; 0x01
     284:	a2 83       	std	Z+2, r26	; 0x02
     286:	b3 83       	std	Z+3, r27	; 0x03
	if (__tmp < 1.0)
     288:	fe 01       	movw	r30, r28
     28a:	e5 5a       	subi	r30, 0xA5	; 165
     28c:	ff 4f       	sbci	r31, 0xFF	; 255
     28e:	60 81       	ld	r22, Z
     290:	71 81       	ldd	r23, Z+1	; 0x01
     292:	82 81       	ldd	r24, Z+2	; 0x02
     294:	93 81       	ldd	r25, Z+3	; 0x03
     296:	20 e0       	ldi	r18, 0x00	; 0
     298:	30 e0       	ldi	r19, 0x00	; 0
     29a:	40 e8       	ldi	r20, 0x80	; 128
     29c:	5f e3       	ldi	r21, 0x3F	; 63
     29e:	0e 94 56 11 	call	0x22ac	; 0x22ac <__ltsf2>
     2a2:	88 23       	and	r24, r24
     2a4:	44 f4       	brge	.+16     	; 0x2b6 <lcd_set_4bit+0x224>
		__ticks = 1;
     2a6:	fe 01       	movw	r30, r28
     2a8:	e7 5a       	subi	r30, 0xA7	; 167
     2aa:	ff 4f       	sbci	r31, 0xFF	; 255
     2ac:	81 e0       	ldi	r24, 0x01	; 1
     2ae:	90 e0       	ldi	r25, 0x00	; 0
     2b0:	91 83       	std	Z+1, r25	; 0x01
     2b2:	80 83       	st	Z, r24
     2b4:	64 c0       	rjmp	.+200    	; 0x37e <lcd_set_4bit+0x2ec>
	else if (__tmp > 65535)
     2b6:	fe 01       	movw	r30, r28
     2b8:	e5 5a       	subi	r30, 0xA5	; 165
     2ba:	ff 4f       	sbci	r31, 0xFF	; 255
     2bc:	60 81       	ld	r22, Z
     2be:	71 81       	ldd	r23, Z+1	; 0x01
     2c0:	82 81       	ldd	r24, Z+2	; 0x02
     2c2:	93 81       	ldd	r25, Z+3	; 0x03
     2c4:	20 e0       	ldi	r18, 0x00	; 0
     2c6:	3f ef       	ldi	r19, 0xFF	; 255
     2c8:	4f e7       	ldi	r20, 0x7F	; 127
     2ca:	57 e4       	ldi	r21, 0x47	; 71
     2cc:	0e 94 f6 10 	call	0x21ec	; 0x21ec <__gtsf2>
     2d0:	18 16       	cp	r1, r24
     2d2:	0c f0       	brlt	.+2      	; 0x2d6 <lcd_set_4bit+0x244>
     2d4:	43 c0       	rjmp	.+134    	; 0x35c <lcd_set_4bit+0x2ca>
	{
		//	__ticks = requested delay in 1/10 ms
		__ticks = (uint16_t) (__ms * 10.0);
     2d6:	fe 01       	movw	r30, r28
     2d8:	e1 5a       	subi	r30, 0xA1	; 161
     2da:	ff 4f       	sbci	r31, 0xFF	; 255
     2dc:	60 81       	ld	r22, Z
     2de:	71 81       	ldd	r23, Z+1	; 0x01
     2e0:	82 81       	ldd	r24, Z+2	; 0x02
     2e2:	93 81       	ldd	r25, Z+3	; 0x03
     2e4:	20 e0       	ldi	r18, 0x00	; 0
     2e6:	30 e0       	ldi	r19, 0x00	; 0
     2e8:	40 e2       	ldi	r20, 0x20	; 32
     2ea:	51 e4       	ldi	r21, 0x41	; 65
     2ec:	0e 94 fc 0f 	call	0x1ff8	; 0x1ff8 <__mulsf3>
     2f0:	dc 01       	movw	r26, r24
     2f2:	cb 01       	movw	r24, r22
     2f4:	8e 01       	movw	r16, r28
     2f6:	07 5a       	subi	r16, 0xA7	; 167
     2f8:	1f 4f       	sbci	r17, 0xFF	; 255
     2fa:	bc 01       	movw	r22, r24
     2fc:	cd 01       	movw	r24, r26
     2fe:	0e 94 26 0e 	call	0x1c4c	; 0x1c4c <__fixunssfsi>
     302:	dc 01       	movw	r26, r24
     304:	cb 01       	movw	r24, r22
     306:	f8 01       	movw	r30, r16
     308:	91 83       	std	Z+1, r25	; 0x01
     30a:	80 83       	st	Z, r24
     30c:	1f c0       	rjmp	.+62     	; 0x34c <lcd_set_4bit+0x2ba>
     30e:	fe 01       	movw	r30, r28
     310:	e9 5a       	subi	r30, 0xA9	; 169
     312:	ff 4f       	sbci	r31, 0xFF	; 255
     314:	88 eb       	ldi	r24, 0xB8	; 184
     316:	90 e0       	ldi	r25, 0x00	; 0
     318:	91 83       	std	Z+1, r25	; 0x01
     31a:	80 83       	st	Z, r24
     31c:	fe 01       	movw	r30, r28
     31e:	e9 5a       	subi	r30, 0xA9	; 169
     320:	ff 4f       	sbci	r31, 0xFF	; 255
     322:	80 81       	ld	r24, Z
     324:	91 81       	ldd	r25, Z+1	; 0x01
     326:	01 97       	sbiw	r24, 0x01	; 1
     328:	f1 f7       	brne	.-4      	; 0x326 <lcd_set_4bit+0x294>
     32a:	fe 01       	movw	r30, r28
     32c:	e9 5a       	subi	r30, 0xA9	; 169
     32e:	ff 4f       	sbci	r31, 0xFF	; 255
     330:	91 83       	std	Z+1, r25	; 0x01
     332:	80 83       	st	Z, r24
		while(__ticks)
		{
			// wait 1/10 ms
			_delay_loop_2(((F_CPU) / 4e3) / 10);
			__ticks --;
     334:	de 01       	movw	r26, r28
     336:	a7 5a       	subi	r26, 0xA7	; 167
     338:	bf 4f       	sbci	r27, 0xFF	; 255
     33a:	fe 01       	movw	r30, r28
     33c:	e7 5a       	subi	r30, 0xA7	; 167
     33e:	ff 4f       	sbci	r31, 0xFF	; 255
     340:	80 81       	ld	r24, Z
     342:	91 81       	ldd	r25, Z+1	; 0x01
     344:	01 97       	sbiw	r24, 0x01	; 1
     346:	11 96       	adiw	r26, 0x01	; 1
     348:	9c 93       	st	X, r25
     34a:	8e 93       	st	-X, r24
		__ticks = 1;
	else if (__tmp > 65535)
	{
		//	__ticks = requested delay in 1/10 ms
		__ticks = (uint16_t) (__ms * 10.0);
		while(__ticks)
     34c:	fe 01       	movw	r30, r28
     34e:	e7 5a       	subi	r30, 0xA7	; 167
     350:	ff 4f       	sbci	r31, 0xFF	; 255
     352:	80 81       	ld	r24, Z
     354:	91 81       	ldd	r25, Z+1	; 0x01
     356:	00 97       	sbiw	r24, 0x00	; 0
     358:	d1 f6       	brne	.-76     	; 0x30e <lcd_set_4bit+0x27c>
     35a:	27 c0       	rjmp	.+78     	; 0x3aa <lcd_set_4bit+0x318>
			__ticks --;
		}
		return;
	}
	else
		__ticks = (uint16_t)__tmp;
     35c:	8e 01       	movw	r16, r28
     35e:	07 5a       	subi	r16, 0xA7	; 167
     360:	1f 4f       	sbci	r17, 0xFF	; 255
     362:	fe 01       	movw	r30, r28
     364:	e5 5a       	subi	r30, 0xA5	; 165
     366:	ff 4f       	sbci	r31, 0xFF	; 255
     368:	60 81       	ld	r22, Z
     36a:	71 81       	ldd	r23, Z+1	; 0x01
     36c:	82 81       	ldd	r24, Z+2	; 0x02
     36e:	93 81       	ldd	r25, Z+3	; 0x03
     370:	0e 94 26 0e 	call	0x1c4c	; 0x1c4c <__fixunssfsi>
     374:	dc 01       	movw	r26, r24
     376:	cb 01       	movw	r24, r22
     378:	f8 01       	movw	r30, r16
     37a:	91 83       	std	Z+1, r25	; 0x01
     37c:	80 83       	st	Z, r24
     37e:	de 01       	movw	r26, r28
     380:	ab 5a       	subi	r26, 0xAB	; 171
     382:	bf 4f       	sbci	r27, 0xFF	; 255
     384:	fe 01       	movw	r30, r28
     386:	e7 5a       	subi	r30, 0xA7	; 167
     388:	ff 4f       	sbci	r31, 0xFF	; 255
     38a:	80 81       	ld	r24, Z
     38c:	91 81       	ldd	r25, Z+1	; 0x01
     38e:	8d 93       	st	X+, r24
     390:	9c 93       	st	X, r25
     392:	fe 01       	movw	r30, r28
     394:	eb 5a       	subi	r30, 0xAB	; 171
     396:	ff 4f       	sbci	r31, 0xFF	; 255
     398:	80 81       	ld	r24, Z
     39a:	91 81       	ldd	r25, Z+1	; 0x01
     39c:	01 97       	sbiw	r24, 0x01	; 1
     39e:	f1 f7       	brne	.-4      	; 0x39c <lcd_set_4bit+0x30a>
     3a0:	fe 01       	movw	r30, r28
     3a2:	eb 5a       	subi	r30, 0xAB	; 171
     3a4:	ff 4f       	sbci	r31, 0xFF	; 255
     3a6:	91 83       	std	Z+1, r25	; 0x01
     3a8:	80 83       	st	Z, r24
	_delay_ms(5);					//delay
	cbit(lcd_port,EN);				//Clear Enable Pin
     3aa:	a5 e3       	ldi	r26, 0x35	; 53
     3ac:	b0 e0       	ldi	r27, 0x00	; 0
     3ae:	e5 e3       	ldi	r30, 0x35	; 53
     3b0:	f0 e0       	ldi	r31, 0x00	; 0
     3b2:	80 81       	ld	r24, Z
     3b4:	8b 7f       	andi	r24, 0xFB	; 251
     3b6:	8c 93       	st	X, r24
     3b8:	fe 01       	movw	r30, r28
     3ba:	ef 5a       	subi	r30, 0xAF	; 175
     3bc:	ff 4f       	sbci	r31, 0xFF	; 255
     3be:	80 e0       	ldi	r24, 0x00	; 0
     3c0:	90 e0       	ldi	r25, 0x00	; 0
     3c2:	a0 e8       	ldi	r26, 0x80	; 128
     3c4:	bf e3       	ldi	r27, 0x3F	; 63
     3c6:	80 83       	st	Z, r24
     3c8:	91 83       	std	Z+1, r25	; 0x01
     3ca:	a2 83       	std	Z+2, r26	; 0x02
     3cc:	b3 83       	std	Z+3, r27	; 0x03
 */
void
_delay_ms(double __ms)
{
	uint16_t __ticks;
	double __tmp = ((F_CPU) / 4e3) * __ms;
     3ce:	8e 01       	movw	r16, r28
     3d0:	03 5b       	subi	r16, 0xB3	; 179
     3d2:	1f 4f       	sbci	r17, 0xFF	; 255
     3d4:	fe 01       	movw	r30, r28
     3d6:	ef 5a       	subi	r30, 0xAF	; 175
     3d8:	ff 4f       	sbci	r31, 0xFF	; 255
     3da:	60 81       	ld	r22, Z
     3dc:	71 81       	ldd	r23, Z+1	; 0x01
     3de:	82 81       	ldd	r24, Z+2	; 0x02
     3e0:	93 81       	ldd	r25, Z+3	; 0x03
     3e2:	26 e6       	ldi	r18, 0x66	; 102
     3e4:	36 e6       	ldi	r19, 0x66	; 102
     3e6:	46 ee       	ldi	r20, 0xE6	; 230
     3e8:	54 e4       	ldi	r21, 0x44	; 68
     3ea:	0e 94 fc 0f 	call	0x1ff8	; 0x1ff8 <__mulsf3>
     3ee:	dc 01       	movw	r26, r24
     3f0:	cb 01       	movw	r24, r22
     3f2:	f8 01       	movw	r30, r16
     3f4:	80 83       	st	Z, r24
     3f6:	91 83       	std	Z+1, r25	; 0x01
     3f8:	a2 83       	std	Z+2, r26	; 0x02
     3fa:	b3 83       	std	Z+3, r27	; 0x03
	if (__tmp < 1.0)
     3fc:	fe 01       	movw	r30, r28
     3fe:	e3 5b       	subi	r30, 0xB3	; 179
     400:	ff 4f       	sbci	r31, 0xFF	; 255
     402:	60 81       	ld	r22, Z
     404:	71 81       	ldd	r23, Z+1	; 0x01
     406:	82 81       	ldd	r24, Z+2	; 0x02
     408:	93 81       	ldd	r25, Z+3	; 0x03
     40a:	20 e0       	ldi	r18, 0x00	; 0
     40c:	30 e0       	ldi	r19, 0x00	; 0
     40e:	40 e8       	ldi	r20, 0x80	; 128
     410:	5f e3       	ldi	r21, 0x3F	; 63
     412:	0e 94 56 11 	call	0x22ac	; 0x22ac <__ltsf2>
     416:	88 23       	and	r24, r24
     418:	44 f4       	brge	.+16     	; 0x42a <lcd_set_4bit+0x398>
		__ticks = 1;
     41a:	fe 01       	movw	r30, r28
     41c:	e5 5b       	subi	r30, 0xB5	; 181
     41e:	ff 4f       	sbci	r31, 0xFF	; 255
     420:	81 e0       	ldi	r24, 0x01	; 1
     422:	90 e0       	ldi	r25, 0x00	; 0
     424:	91 83       	std	Z+1, r25	; 0x01
     426:	80 83       	st	Z, r24
     428:	64 c0       	rjmp	.+200    	; 0x4f2 <__stack+0x93>
	else if (__tmp > 65535)
     42a:	fe 01       	movw	r30, r28
     42c:	e3 5b       	subi	r30, 0xB3	; 179
     42e:	ff 4f       	sbci	r31, 0xFF	; 255
     430:	60 81       	ld	r22, Z
     432:	71 81       	ldd	r23, Z+1	; 0x01
     434:	82 81       	ldd	r24, Z+2	; 0x02
     436:	93 81       	ldd	r25, Z+3	; 0x03
     438:	20 e0       	ldi	r18, 0x00	; 0
     43a:	3f ef       	ldi	r19, 0xFF	; 255
     43c:	4f e7       	ldi	r20, 0x7F	; 127
     43e:	57 e4       	ldi	r21, 0x47	; 71
     440:	0e 94 f6 10 	call	0x21ec	; 0x21ec <__gtsf2>
     444:	18 16       	cp	r1, r24
     446:	0c f0       	brlt	.+2      	; 0x44a <lcd_set_4bit+0x3b8>
     448:	43 c0       	rjmp	.+134    	; 0x4d0 <__stack+0x71>
	{
		//	__ticks = requested delay in 1/10 ms
		__ticks = (uint16_t) (__ms * 10.0);
     44a:	fe 01       	movw	r30, r28
     44c:	ef 5a       	subi	r30, 0xAF	; 175
     44e:	ff 4f       	sbci	r31, 0xFF	; 255
     450:	60 81       	ld	r22, Z
     452:	71 81       	ldd	r23, Z+1	; 0x01
     454:	82 81       	ldd	r24, Z+2	; 0x02
     456:	93 81       	ldd	r25, Z+3	; 0x03
     458:	20 e0       	ldi	r18, 0x00	; 0
     45a:	30 e0       	ldi	r19, 0x00	; 0
     45c:	40 e2       	ldi	r20, 0x20	; 32
     45e:	51 e4       	ldi	r21, 0x41	; 65
     460:	0e 94 fc 0f 	call	0x1ff8	; 0x1ff8 <__mulsf3>
     464:	dc 01       	movw	r26, r24
     466:	cb 01       	movw	r24, r22
     468:	8e 01       	movw	r16, r28
     46a:	05 5b       	subi	r16, 0xB5	; 181
     46c:	1f 4f       	sbci	r17, 0xFF	; 255
     46e:	bc 01       	movw	r22, r24
     470:	cd 01       	movw	r24, r26
     472:	0e 94 26 0e 	call	0x1c4c	; 0x1c4c <__fixunssfsi>
     476:	dc 01       	movw	r26, r24
     478:	cb 01       	movw	r24, r22
     47a:	f8 01       	movw	r30, r16
     47c:	91 83       	std	Z+1, r25	; 0x01
     47e:	80 83       	st	Z, r24
     480:	1f c0       	rjmp	.+62     	; 0x4c0 <__stack+0x61>
     482:	fe 01       	movw	r30, r28
     484:	e7 5b       	subi	r30, 0xB7	; 183
     486:	ff 4f       	sbci	r31, 0xFF	; 255
     488:	88 eb       	ldi	r24, 0xB8	; 184
     48a:	90 e0       	ldi	r25, 0x00	; 0
     48c:	91 83       	std	Z+1, r25	; 0x01
     48e:	80 83       	st	Z, r24
     490:	fe 01       	movw	r30, r28
     492:	e7 5b       	subi	r30, 0xB7	; 183
     494:	ff 4f       	sbci	r31, 0xFF	; 255
     496:	80 81       	ld	r24, Z
     498:	91 81       	ldd	r25, Z+1	; 0x01
     49a:	01 97       	sbiw	r24, 0x01	; 1
     49c:	f1 f7       	brne	.-4      	; 0x49a <__stack+0x3b>
     49e:	fe 01       	movw	r30, r28
     4a0:	e7 5b       	subi	r30, 0xB7	; 183
     4a2:	ff 4f       	sbci	r31, 0xFF	; 255
     4a4:	91 83       	std	Z+1, r25	; 0x01
     4a6:	80 83       	st	Z, r24
		while(__ticks)
		{
			// wait 1/10 ms
			_delay_loop_2(((F_CPU) / 4e3) / 10);
			__ticks --;
     4a8:	de 01       	movw	r26, r28
     4aa:	a5 5b       	subi	r26, 0xB5	; 181
     4ac:	bf 4f       	sbci	r27, 0xFF	; 255
     4ae:	fe 01       	movw	r30, r28
     4b0:	e5 5b       	subi	r30, 0xB5	; 181
     4b2:	ff 4f       	sbci	r31, 0xFF	; 255
     4b4:	80 81       	ld	r24, Z
     4b6:	91 81       	ldd	r25, Z+1	; 0x01
     4b8:	01 97       	sbiw	r24, 0x01	; 1
     4ba:	11 96       	adiw	r26, 0x01	; 1
     4bc:	9c 93       	st	X, r25
     4be:	8e 93       	st	-X, r24
		__ticks = 1;
	else if (__tmp > 65535)
	{
		//	__ticks = requested delay in 1/10 ms
		__ticks = (uint16_t) (__ms * 10.0);
		while(__ticks)
     4c0:	fe 01       	movw	r30, r28
     4c2:	e5 5b       	subi	r30, 0xB5	; 181
     4c4:	ff 4f       	sbci	r31, 0xFF	; 255
     4c6:	80 81       	ld	r24, Z
     4c8:	91 81       	ldd	r25, Z+1	; 0x01
     4ca:	00 97       	sbiw	r24, 0x00	; 0
     4cc:	d1 f6       	brne	.-76     	; 0x482 <__stack+0x23>
     4ce:	27 c0       	rjmp	.+78     	; 0x51e <__stack+0xbf>
			__ticks --;
		}
		return;
	}
	else
		__ticks = (uint16_t)__tmp;
     4d0:	8e 01       	movw	r16, r28
     4d2:	05 5b       	subi	r16, 0xB5	; 181
     4d4:	1f 4f       	sbci	r17, 0xFF	; 255
     4d6:	fe 01       	movw	r30, r28
     4d8:	e3 5b       	subi	r30, 0xB3	; 179
     4da:	ff 4f       	sbci	r31, 0xFF	; 255
     4dc:	60 81       	ld	r22, Z
     4de:	71 81       	ldd	r23, Z+1	; 0x01
     4e0:	82 81       	ldd	r24, Z+2	; 0x02
     4e2:	93 81       	ldd	r25, Z+3	; 0x03
     4e4:	0e 94 26 0e 	call	0x1c4c	; 0x1c4c <__fixunssfsi>
     4e8:	dc 01       	movw	r26, r24
     4ea:	cb 01       	movw	r24, r22
     4ec:	f8 01       	movw	r30, r16
     4ee:	91 83       	std	Z+1, r25	; 0x01
     4f0:	80 83       	st	Z, r24
     4f2:	de 01       	movw	r26, r28
     4f4:	a9 5b       	subi	r26, 0xB9	; 185
     4f6:	bf 4f       	sbci	r27, 0xFF	; 255
     4f8:	fe 01       	movw	r30, r28
     4fa:	e5 5b       	subi	r30, 0xB5	; 181
     4fc:	ff 4f       	sbci	r31, 0xFF	; 255
     4fe:	80 81       	ld	r24, Z
     500:	91 81       	ldd	r25, Z+1	; 0x01
     502:	8d 93       	st	X+, r24
     504:	9c 93       	st	X, r25
     506:	fe 01       	movw	r30, r28
     508:	e9 5b       	subi	r30, 0xB9	; 185
     50a:	ff 4f       	sbci	r31, 0xFF	; 255
     50c:	80 81       	ld	r24, Z
     50e:	91 81       	ldd	r25, Z+1	; 0x01
     510:	01 97       	sbiw	r24, 0x01	; 1
     512:	f1 f7       	brne	.-4      	; 0x510 <__stack+0xb1>
     514:	fe 01       	movw	r30, r28
     516:	e9 5b       	subi	r30, 0xB9	; 185
     518:	ff 4f       	sbci	r31, 0xFF	; 255
     51a:	91 83       	std	Z+1, r25	; 0x01
     51c:	80 83       	st	Z, r24

	_delay_ms(1);

	cbit(lcd_port,RS);				//RS=0 --- Command Input
     51e:	a5 e3       	ldi	r26, 0x35	; 53
     520:	b0 e0       	ldi	r27, 0x00	; 0
     522:	e5 e3       	ldi	r30, 0x35	; 53
     524:	f0 e0       	ldi	r31, 0x00	; 0
     526:	80 81       	ld	r24, Z
     528:	8e 7f       	andi	r24, 0xFE	; 254
     52a:	8c 93       	st	X, r24
	cbit(lcd_port,RW);				//RW=0 --- Writing to LCD
     52c:	a5 e3       	ldi	r26, 0x35	; 53
     52e:	b0 e0       	ldi	r27, 0x00	; 0
     530:	e5 e3       	ldi	r30, 0x35	; 53
     532:	f0 e0       	ldi	r31, 0x00	; 0
     534:	80 81       	ld	r24, Z
     536:	8d 7f       	andi	r24, 0xFD	; 253
     538:	8c 93       	st	X, r24
	lcd_port = 0x30;				//Sending 3 in the upper nibble
     53a:	e5 e3       	ldi	r30, 0x35	; 53
     53c:	f0 e0       	ldi	r31, 0x00	; 0
     53e:	80 e3       	ldi	r24, 0x30	; 48
     540:	80 83       	st	Z, r24
	sbit(lcd_port,EN);				//Set Enable Pin
     542:	a5 e3       	ldi	r26, 0x35	; 53
     544:	b0 e0       	ldi	r27, 0x00	; 0
     546:	e5 e3       	ldi	r30, 0x35	; 53
     548:	f0 e0       	ldi	r31, 0x00	; 0
     54a:	80 81       	ld	r24, Z
     54c:	84 60       	ori	r24, 0x04	; 4
     54e:	8c 93       	st	X, r24
     550:	fe 01       	movw	r30, r28
     552:	ed 5b       	subi	r30, 0xBD	; 189
     554:	ff 4f       	sbci	r31, 0xFF	; 255
     556:	80 e0       	ldi	r24, 0x00	; 0
     558:	90 e0       	ldi	r25, 0x00	; 0
     55a:	a0 ea       	ldi	r26, 0xA0	; 160
     55c:	b0 e4       	ldi	r27, 0x40	; 64
     55e:	80 83       	st	Z, r24
     560:	91 83       	std	Z+1, r25	; 0x01
     562:	a2 83       	std	Z+2, r26	; 0x02
     564:	b3 83       	std	Z+3, r27	; 0x03
 */
void
_delay_ms(double __ms)
{
	uint16_t __ticks;
	double __tmp = ((F_CPU) / 4e3) * __ms;
     566:	8e 01       	movw	r16, r28
     568:	01 5c       	subi	r16, 0xC1	; 193
     56a:	1f 4f       	sbci	r17, 0xFF	; 255
     56c:	fe 01       	movw	r30, r28
     56e:	ed 5b       	subi	r30, 0xBD	; 189
     570:	ff 4f       	sbci	r31, 0xFF	; 255
     572:	60 81       	ld	r22, Z
     574:	71 81       	ldd	r23, Z+1	; 0x01
     576:	82 81       	ldd	r24, Z+2	; 0x02
     578:	93 81       	ldd	r25, Z+3	; 0x03
     57a:	26 e6       	ldi	r18, 0x66	; 102
     57c:	36 e6       	ldi	r19, 0x66	; 102
     57e:	46 ee       	ldi	r20, 0xE6	; 230
     580:	54 e4       	ldi	r21, 0x44	; 68
     582:	0e 94 fc 0f 	call	0x1ff8	; 0x1ff8 <__mulsf3>
     586:	dc 01       	movw	r26, r24
     588:	cb 01       	movw	r24, r22
     58a:	f8 01       	movw	r30, r16
     58c:	80 83       	st	Z, r24
     58e:	91 83       	std	Z+1, r25	; 0x01
     590:	a2 83       	std	Z+2, r26	; 0x02
     592:	b3 83       	std	Z+3, r27	; 0x03
	if (__tmp < 1.0)
     594:	fe 01       	movw	r30, r28
     596:	ff 96       	adiw	r30, 0x3f	; 63
     598:	60 81       	ld	r22, Z
     59a:	71 81       	ldd	r23, Z+1	; 0x01
     59c:	82 81       	ldd	r24, Z+2	; 0x02
     59e:	93 81       	ldd	r25, Z+3	; 0x03
     5a0:	20 e0       	ldi	r18, 0x00	; 0
     5a2:	30 e0       	ldi	r19, 0x00	; 0
     5a4:	40 e8       	ldi	r20, 0x80	; 128
     5a6:	5f e3       	ldi	r21, 0x3F	; 63
     5a8:	0e 94 56 11 	call	0x22ac	; 0x22ac <__ltsf2>
     5ac:	88 23       	and	r24, r24
     5ae:	2c f4       	brge	.+10     	; 0x5ba <__stack+0x15b>
		__ticks = 1;
     5b0:	81 e0       	ldi	r24, 0x01	; 1
     5b2:	90 e0       	ldi	r25, 0x00	; 0
     5b4:	9e af       	std	Y+62, r25	; 0x3e
     5b6:	8d af       	std	Y+61, r24	; 0x3d
     5b8:	46 c0       	rjmp	.+140    	; 0x646 <__stack+0x1e7>
	else if (__tmp > 65535)
     5ba:	fe 01       	movw	r30, r28
     5bc:	ff 96       	adiw	r30, 0x3f	; 63
     5be:	60 81       	ld	r22, Z
     5c0:	71 81       	ldd	r23, Z+1	; 0x01
     5c2:	82 81       	ldd	r24, Z+2	; 0x02
     5c4:	93 81       	ldd	r25, Z+3	; 0x03
     5c6:	20 e0       	ldi	r18, 0x00	; 0
     5c8:	3f ef       	ldi	r19, 0xFF	; 255
     5ca:	4f e7       	ldi	r20, 0x7F	; 127
     5cc:	57 e4       	ldi	r21, 0x47	; 71
     5ce:	0e 94 f6 10 	call	0x21ec	; 0x21ec <__gtsf2>
     5d2:	18 16       	cp	r1, r24
     5d4:	64 f5       	brge	.+88     	; 0x62e <__stack+0x1cf>
	{
		//	__ticks = requested delay in 1/10 ms
		__ticks = (uint16_t) (__ms * 10.0);
     5d6:	fe 01       	movw	r30, r28
     5d8:	ed 5b       	subi	r30, 0xBD	; 189
     5da:	ff 4f       	sbci	r31, 0xFF	; 255
     5dc:	60 81       	ld	r22, Z
     5de:	71 81       	ldd	r23, Z+1	; 0x01
     5e0:	82 81       	ldd	r24, Z+2	; 0x02
     5e2:	93 81       	ldd	r25, Z+3	; 0x03
     5e4:	20 e0       	ldi	r18, 0x00	; 0
     5e6:	30 e0       	ldi	r19, 0x00	; 0
     5e8:	40 e2       	ldi	r20, 0x20	; 32
     5ea:	51 e4       	ldi	r21, 0x41	; 65
     5ec:	0e 94 fc 0f 	call	0x1ff8	; 0x1ff8 <__mulsf3>
     5f0:	dc 01       	movw	r26, r24
     5f2:	cb 01       	movw	r24, r22
     5f4:	bc 01       	movw	r22, r24
     5f6:	cd 01       	movw	r24, r26
     5f8:	0e 94 26 0e 	call	0x1c4c	; 0x1c4c <__fixunssfsi>
     5fc:	dc 01       	movw	r26, r24
     5fe:	cb 01       	movw	r24, r22
     600:	9e af       	std	Y+62, r25	; 0x3e
     602:	8d af       	std	Y+61, r24	; 0x3d
     604:	0f c0       	rjmp	.+30     	; 0x624 <__stack+0x1c5>
     606:	88 eb       	ldi	r24, 0xB8	; 184
     608:	90 e0       	ldi	r25, 0x00	; 0
     60a:	9c af       	std	Y+60, r25	; 0x3c
     60c:	8b af       	std	Y+59, r24	; 0x3b
     60e:	8b ad       	ldd	r24, Y+59	; 0x3b
     610:	9c ad       	ldd	r25, Y+60	; 0x3c
     612:	01 97       	sbiw	r24, 0x01	; 1
     614:	f1 f7       	brne	.-4      	; 0x612 <__stack+0x1b3>
     616:	9c af       	std	Y+60, r25	; 0x3c
     618:	8b af       	std	Y+59, r24	; 0x3b
		while(__ticks)
		{
			// wait 1/10 ms
			_delay_loop_2(((F_CPU) / 4e3) / 10);
			__ticks --;
     61a:	8d ad       	ldd	r24, Y+61	; 0x3d
     61c:	9e ad       	ldd	r25, Y+62	; 0x3e
     61e:	01 97       	sbiw	r24, 0x01	; 1
     620:	9e af       	std	Y+62, r25	; 0x3e
     622:	8d af       	std	Y+61, r24	; 0x3d
		__ticks = 1;
	else if (__tmp > 65535)
	{
		//	__ticks = requested delay in 1/10 ms
		__ticks = (uint16_t) (__ms * 10.0);
		while(__ticks)
     624:	8d ad       	ldd	r24, Y+61	; 0x3d
     626:	9e ad       	ldd	r25, Y+62	; 0x3e
     628:	00 97       	sbiw	r24, 0x00	; 0
     62a:	69 f7       	brne	.-38     	; 0x606 <__stack+0x1a7>
     62c:	16 c0       	rjmp	.+44     	; 0x65a <__stack+0x1fb>
			__ticks --;
		}
		return;
	}
	else
		__ticks = (uint16_t)__tmp;
     62e:	fe 01       	movw	r30, r28
     630:	ff 96       	adiw	r30, 0x3f	; 63
     632:	60 81       	ld	r22, Z
     634:	71 81       	ldd	r23, Z+1	; 0x01
     636:	82 81       	ldd	r24, Z+2	; 0x02
     638:	93 81       	ldd	r25, Z+3	; 0x03
     63a:	0e 94 26 0e 	call	0x1c4c	; 0x1c4c <__fixunssfsi>
     63e:	dc 01       	movw	r26, r24
     640:	cb 01       	movw	r24, r22
     642:	9e af       	std	Y+62, r25	; 0x3e
     644:	8d af       	std	Y+61, r24	; 0x3d
     646:	8d ad       	ldd	r24, Y+61	; 0x3d
     648:	9e ad       	ldd	r25, Y+62	; 0x3e
     64a:	9a af       	std	Y+58, r25	; 0x3a
     64c:	89 af       	std	Y+57, r24	; 0x39
     64e:	89 ad       	ldd	r24, Y+57	; 0x39
     650:	9a ad       	ldd	r25, Y+58	; 0x3a
     652:	01 97       	sbiw	r24, 0x01	; 1
     654:	f1 f7       	brne	.-4      	; 0x652 <__stack+0x1f3>
     656:	9a af       	std	Y+58, r25	; 0x3a
     658:	89 af       	std	Y+57, r24	; 0x39
	_delay_ms(5);					//delay
	cbit(lcd_port,EN);				//Clear Enable Pin
     65a:	a5 e3       	ldi	r26, 0x35	; 53
     65c:	b0 e0       	ldi	r27, 0x00	; 0
     65e:	e5 e3       	ldi	r30, 0x35	; 53
     660:	f0 e0       	ldi	r31, 0x00	; 0
     662:	80 81       	ld	r24, Z
     664:	8b 7f       	andi	r24, 0xFB	; 251
     666:	8c 93       	st	X, r24
     668:	80 e0       	ldi	r24, 0x00	; 0
     66a:	90 e0       	ldi	r25, 0x00	; 0
     66c:	a0 e8       	ldi	r26, 0x80	; 128
     66e:	bf e3       	ldi	r27, 0x3F	; 63
     670:	8d ab       	std	Y+53, r24	; 0x35
     672:	9e ab       	std	Y+54, r25	; 0x36
     674:	af ab       	std	Y+55, r26	; 0x37
     676:	b8 af       	std	Y+56, r27	; 0x38
 */
void
_delay_ms(double __ms)
{
	uint16_t __ticks;
	double __tmp = ((F_CPU) / 4e3) * __ms;
     678:	6d a9       	ldd	r22, Y+53	; 0x35
     67a:	7e a9       	ldd	r23, Y+54	; 0x36
     67c:	8f a9       	ldd	r24, Y+55	; 0x37
     67e:	98 ad       	ldd	r25, Y+56	; 0x38
     680:	26 e6       	ldi	r18, 0x66	; 102
     682:	36 e6       	ldi	r19, 0x66	; 102
     684:	46 ee       	ldi	r20, 0xE6	; 230
     686:	54 e4       	ldi	r21, 0x44	; 68
     688:	0e 94 fc 0f 	call	0x1ff8	; 0x1ff8 <__mulsf3>
     68c:	dc 01       	movw	r26, r24
     68e:	cb 01       	movw	r24, r22
     690:	89 ab       	std	Y+49, r24	; 0x31
     692:	9a ab       	std	Y+50, r25	; 0x32
     694:	ab ab       	std	Y+51, r26	; 0x33
     696:	bc ab       	std	Y+52, r27	; 0x34
	if (__tmp < 1.0)
     698:	69 a9       	ldd	r22, Y+49	; 0x31
     69a:	7a a9       	ldd	r23, Y+50	; 0x32
     69c:	8b a9       	ldd	r24, Y+51	; 0x33
     69e:	9c a9       	ldd	r25, Y+52	; 0x34
     6a0:	20 e0       	ldi	r18, 0x00	; 0
     6a2:	30 e0       	ldi	r19, 0x00	; 0
     6a4:	40 e8       	ldi	r20, 0x80	; 128
     6a6:	5f e3       	ldi	r21, 0x3F	; 63
     6a8:	0e 94 56 11 	call	0x22ac	; 0x22ac <__ltsf2>
     6ac:	88 23       	and	r24, r24
     6ae:	2c f4       	brge	.+10     	; 0x6ba <__stack+0x25b>
		__ticks = 1;
     6b0:	81 e0       	ldi	r24, 0x01	; 1
     6b2:	90 e0       	ldi	r25, 0x00	; 0
     6b4:	98 ab       	std	Y+48, r25	; 0x30
     6b6:	8f a7       	std	Y+47, r24	; 0x2f
     6b8:	3f c0       	rjmp	.+126    	; 0x738 <__stack+0x2d9>
	else if (__tmp > 65535)
     6ba:	69 a9       	ldd	r22, Y+49	; 0x31
     6bc:	7a a9       	ldd	r23, Y+50	; 0x32
     6be:	8b a9       	ldd	r24, Y+51	; 0x33
     6c0:	9c a9       	ldd	r25, Y+52	; 0x34
     6c2:	20 e0       	ldi	r18, 0x00	; 0
     6c4:	3f ef       	ldi	r19, 0xFF	; 255
     6c6:	4f e7       	ldi	r20, 0x7F	; 127
     6c8:	57 e4       	ldi	r21, 0x47	; 71
     6ca:	0e 94 f6 10 	call	0x21ec	; 0x21ec <__gtsf2>
     6ce:	18 16       	cp	r1, r24
     6d0:	4c f5       	brge	.+82     	; 0x724 <__stack+0x2c5>
	{
		//	__ticks = requested delay in 1/10 ms
		__ticks = (uint16_t) (__ms * 10.0);
     6d2:	6d a9       	ldd	r22, Y+53	; 0x35
     6d4:	7e a9       	ldd	r23, Y+54	; 0x36
     6d6:	8f a9       	ldd	r24, Y+55	; 0x37
     6d8:	98 ad       	ldd	r25, Y+56	; 0x38
     6da:	20 e0       	ldi	r18, 0x00	; 0
     6dc:	30 e0       	ldi	r19, 0x00	; 0
     6de:	40 e2       	ldi	r20, 0x20	; 32
     6e0:	51 e4       	ldi	r21, 0x41	; 65
     6e2:	0e 94 fc 0f 	call	0x1ff8	; 0x1ff8 <__mulsf3>
     6e6:	dc 01       	movw	r26, r24
     6e8:	cb 01       	movw	r24, r22
     6ea:	bc 01       	movw	r22, r24
     6ec:	cd 01       	movw	r24, r26
     6ee:	0e 94 26 0e 	call	0x1c4c	; 0x1c4c <__fixunssfsi>
     6f2:	dc 01       	movw	r26, r24
     6f4:	cb 01       	movw	r24, r22
     6f6:	98 ab       	std	Y+48, r25	; 0x30
     6f8:	8f a7       	std	Y+47, r24	; 0x2f
     6fa:	0f c0       	rjmp	.+30     	; 0x71a <__stack+0x2bb>
     6fc:	88 eb       	ldi	r24, 0xB8	; 184
     6fe:	90 e0       	ldi	r25, 0x00	; 0
     700:	9e a7       	std	Y+46, r25	; 0x2e
     702:	8d a7       	std	Y+45, r24	; 0x2d
     704:	8d a5       	ldd	r24, Y+45	; 0x2d
     706:	9e a5       	ldd	r25, Y+46	; 0x2e
     708:	01 97       	sbiw	r24, 0x01	; 1
     70a:	f1 f7       	brne	.-4      	; 0x708 <__stack+0x2a9>
     70c:	9e a7       	std	Y+46, r25	; 0x2e
     70e:	8d a7       	std	Y+45, r24	; 0x2d
		while(__ticks)
		{
			// wait 1/10 ms
			_delay_loop_2(((F_CPU) / 4e3) / 10);
			__ticks --;
     710:	8f a5       	ldd	r24, Y+47	; 0x2f
     712:	98 a9       	ldd	r25, Y+48	; 0x30
     714:	01 97       	sbiw	r24, 0x01	; 1
     716:	98 ab       	std	Y+48, r25	; 0x30
     718:	8f a7       	std	Y+47, r24	; 0x2f
		__ticks = 1;
	else if (__tmp > 65535)
	{
		//	__ticks = requested delay in 1/10 ms
		__ticks = (uint16_t) (__ms * 10.0);
		while(__ticks)
     71a:	8f a5       	ldd	r24, Y+47	; 0x2f
     71c:	98 a9       	ldd	r25, Y+48	; 0x30
     71e:	00 97       	sbiw	r24, 0x00	; 0
     720:	69 f7       	brne	.-38     	; 0x6fc <__stack+0x29d>
     722:	14 c0       	rjmp	.+40     	; 0x74c <__stack+0x2ed>
			__ticks --;
		}
		return;
	}
	else
		__ticks = (uint16_t)__tmp;
     724:	69 a9       	ldd	r22, Y+49	; 0x31
     726:	7a a9       	ldd	r23, Y+50	; 0x32
     728:	8b a9       	ldd	r24, Y+51	; 0x33
     72a:	9c a9       	ldd	r25, Y+52	; 0x34
     72c:	0e 94 26 0e 	call	0x1c4c	; 0x1c4c <__fixunssfsi>
     730:	dc 01       	movw	r26, r24
     732:	cb 01       	movw	r24, r22
     734:	98 ab       	std	Y+48, r25	; 0x30
     736:	8f a7       	std	Y+47, r24	; 0x2f
     738:	8f a5       	ldd	r24, Y+47	; 0x2f
     73a:	98 a9       	ldd	r25, Y+48	; 0x30
     73c:	9c a7       	std	Y+44, r25	; 0x2c
     73e:	8b a7       	std	Y+43, r24	; 0x2b
     740:	8b a5       	ldd	r24, Y+43	; 0x2b
     742:	9c a5       	ldd	r25, Y+44	; 0x2c
     744:	01 97       	sbiw	r24, 0x01	; 1
     746:	f1 f7       	brne	.-4      	; 0x744 <__stack+0x2e5>
     748:	9c a7       	std	Y+44, r25	; 0x2c
     74a:	8b a7       	std	Y+43, r24	; 0x2b

	_delay_ms(1);

	cbit(lcd_port,RS);				//RS=0 --- Command Input
     74c:	a5 e3       	ldi	r26, 0x35	; 53
     74e:	b0 e0       	ldi	r27, 0x00	; 0
     750:	e5 e3       	ldi	r30, 0x35	; 53
     752:	f0 e0       	ldi	r31, 0x00	; 0
     754:	80 81       	ld	r24, Z
     756:	8e 7f       	andi	r24, 0xFE	; 254
     758:	8c 93       	st	X, r24
	cbit(lcd_port,RW);				//RW=0 --- Writing to LCD
     75a:	a5 e3       	ldi	r26, 0x35	; 53
     75c:	b0 e0       	ldi	r27, 0x00	; 0
     75e:	e5 e3       	ldi	r30, 0x35	; 53
     760:	f0 e0       	ldi	r31, 0x00	; 0
     762:	80 81       	ld	r24, Z
     764:	8d 7f       	andi	r24, 0xFD	; 253
     766:	8c 93       	st	X, r24
	lcd_port = 0x30;				//Sending 3 in the upper nibble
     768:	e5 e3       	ldi	r30, 0x35	; 53
     76a:	f0 e0       	ldi	r31, 0x00	; 0
     76c:	80 e3       	ldi	r24, 0x30	; 48
     76e:	80 83       	st	Z, r24
	sbit(lcd_port,EN);				//Set Enable Pin
     770:	a5 e3       	ldi	r26, 0x35	; 53
     772:	b0 e0       	ldi	r27, 0x00	; 0
     774:	e5 e3       	ldi	r30, 0x35	; 53
     776:	f0 e0       	ldi	r31, 0x00	; 0
     778:	80 81       	ld	r24, Z
     77a:	84 60       	ori	r24, 0x04	; 4
     77c:	8c 93       	st	X, r24
     77e:	80 e0       	ldi	r24, 0x00	; 0
     780:	90 e0       	ldi	r25, 0x00	; 0
     782:	a0 ea       	ldi	r26, 0xA0	; 160
     784:	b0 e4       	ldi	r27, 0x40	; 64
     786:	8f a3       	std	Y+39, r24	; 0x27
     788:	98 a7       	std	Y+40, r25	; 0x28
     78a:	a9 a7       	std	Y+41, r26	; 0x29
     78c:	ba a7       	std	Y+42, r27	; 0x2a
 */
void
_delay_ms(double __ms)
{
	uint16_t __ticks;
	double __tmp = ((F_CPU) / 4e3) * __ms;
     78e:	6f a1       	ldd	r22, Y+39	; 0x27
     790:	78 a5       	ldd	r23, Y+40	; 0x28
     792:	89 a5       	ldd	r24, Y+41	; 0x29
     794:	9a a5       	ldd	r25, Y+42	; 0x2a
     796:	26 e6       	ldi	r18, 0x66	; 102
     798:	36 e6       	ldi	r19, 0x66	; 102
     79a:	46 ee       	ldi	r20, 0xE6	; 230
     79c:	54 e4       	ldi	r21, 0x44	; 68
     79e:	0e 94 fc 0f 	call	0x1ff8	; 0x1ff8 <__mulsf3>
     7a2:	dc 01       	movw	r26, r24
     7a4:	cb 01       	movw	r24, r22
     7a6:	8b a3       	std	Y+35, r24	; 0x23
     7a8:	9c a3       	std	Y+36, r25	; 0x24
     7aa:	ad a3       	std	Y+37, r26	; 0x25
     7ac:	be a3       	std	Y+38, r27	; 0x26
	if (__tmp < 1.0)
     7ae:	6b a1       	ldd	r22, Y+35	; 0x23
     7b0:	7c a1       	ldd	r23, Y+36	; 0x24
     7b2:	8d a1       	ldd	r24, Y+37	; 0x25
     7b4:	9e a1       	ldd	r25, Y+38	; 0x26
     7b6:	20 e0       	ldi	r18, 0x00	; 0
     7b8:	30 e0       	ldi	r19, 0x00	; 0
     7ba:	40 e8       	ldi	r20, 0x80	; 128
     7bc:	5f e3       	ldi	r21, 0x3F	; 63
     7be:	0e 94 56 11 	call	0x22ac	; 0x22ac <__ltsf2>
     7c2:	88 23       	and	r24, r24
     7c4:	2c f4       	brge	.+10     	; 0x7d0 <__stack+0x371>
		__ticks = 1;
     7c6:	81 e0       	ldi	r24, 0x01	; 1
     7c8:	90 e0       	ldi	r25, 0x00	; 0
     7ca:	9a a3       	std	Y+34, r25	; 0x22
     7cc:	89 a3       	std	Y+33, r24	; 0x21
     7ce:	3f c0       	rjmp	.+126    	; 0x84e <__stack+0x3ef>
	else if (__tmp > 65535)
     7d0:	6b a1       	ldd	r22, Y+35	; 0x23
     7d2:	7c a1       	ldd	r23, Y+36	; 0x24
     7d4:	8d a1       	ldd	r24, Y+37	; 0x25
     7d6:	9e a1       	ldd	r25, Y+38	; 0x26
     7d8:	20 e0       	ldi	r18, 0x00	; 0
     7da:	3f ef       	ldi	r19, 0xFF	; 255
     7dc:	4f e7       	ldi	r20, 0x7F	; 127
     7de:	57 e4       	ldi	r21, 0x47	; 71
     7e0:	0e 94 f6 10 	call	0x21ec	; 0x21ec <__gtsf2>
     7e4:	18 16       	cp	r1, r24
     7e6:	4c f5       	brge	.+82     	; 0x83a <__stack+0x3db>
	{
		//	__ticks = requested delay in 1/10 ms
		__ticks = (uint16_t) (__ms * 10.0);
     7e8:	6f a1       	ldd	r22, Y+39	; 0x27
     7ea:	78 a5       	ldd	r23, Y+40	; 0x28
     7ec:	89 a5       	ldd	r24, Y+41	; 0x29
     7ee:	9a a5       	ldd	r25, Y+42	; 0x2a
     7f0:	20 e0       	ldi	r18, 0x00	; 0
     7f2:	30 e0       	ldi	r19, 0x00	; 0
     7f4:	40 e2       	ldi	r20, 0x20	; 32
     7f6:	51 e4       	ldi	r21, 0x41	; 65
     7f8:	0e 94 fc 0f 	call	0x1ff8	; 0x1ff8 <__mulsf3>
     7fc:	dc 01       	movw	r26, r24
     7fe:	cb 01       	movw	r24, r22
     800:	bc 01       	movw	r22, r24
     802:	cd 01       	movw	r24, r26
     804:	0e 94 26 0e 	call	0x1c4c	; 0x1c4c <__fixunssfsi>
     808:	dc 01       	movw	r26, r24
     80a:	cb 01       	movw	r24, r22
     80c:	9a a3       	std	Y+34, r25	; 0x22
     80e:	89 a3       	std	Y+33, r24	; 0x21
     810:	0f c0       	rjmp	.+30     	; 0x830 <__stack+0x3d1>
     812:	88 eb       	ldi	r24, 0xB8	; 184
     814:	90 e0       	ldi	r25, 0x00	; 0
     816:	98 a3       	std	Y+32, r25	; 0x20
     818:	8f 8f       	std	Y+31, r24	; 0x1f
     81a:	8f 8d       	ldd	r24, Y+31	; 0x1f
     81c:	98 a1       	ldd	r25, Y+32	; 0x20
     81e:	01 97       	sbiw	r24, 0x01	; 1
     820:	f1 f7       	brne	.-4      	; 0x81e <__stack+0x3bf>
     822:	98 a3       	std	Y+32, r25	; 0x20
     824:	8f 8f       	std	Y+31, r24	; 0x1f
		while(__ticks)
		{
			// wait 1/10 ms
			_delay_loop_2(((F_CPU) / 4e3) / 10);
			__ticks --;
     826:	89 a1       	ldd	r24, Y+33	; 0x21
     828:	9a a1       	ldd	r25, Y+34	; 0x22
     82a:	01 97       	sbiw	r24, 0x01	; 1
     82c:	9a a3       	std	Y+34, r25	; 0x22
     82e:	89 a3       	std	Y+33, r24	; 0x21
		__ticks = 1;
	else if (__tmp > 65535)
	{
		//	__ticks = requested delay in 1/10 ms
		__ticks = (uint16_t) (__ms * 10.0);
		while(__ticks)
     830:	89 a1       	ldd	r24, Y+33	; 0x21
     832:	9a a1       	ldd	r25, Y+34	; 0x22
     834:	00 97       	sbiw	r24, 0x00	; 0
     836:	69 f7       	brne	.-38     	; 0x812 <__stack+0x3b3>
     838:	14 c0       	rjmp	.+40     	; 0x862 <__stack+0x403>
			__ticks --;
		}
		return;
	}
	else
		__ticks = (uint16_t)__tmp;
     83a:	6b a1       	ldd	r22, Y+35	; 0x23
     83c:	7c a1       	ldd	r23, Y+36	; 0x24
     83e:	8d a1       	ldd	r24, Y+37	; 0x25
     840:	9e a1       	ldd	r25, Y+38	; 0x26
     842:	0e 94 26 0e 	call	0x1c4c	; 0x1c4c <__fixunssfsi>
     846:	dc 01       	movw	r26, r24
     848:	cb 01       	movw	r24, r22
     84a:	9a a3       	std	Y+34, r25	; 0x22
     84c:	89 a3       	std	Y+33, r24	; 0x21
     84e:	89 a1       	ldd	r24, Y+33	; 0x21
     850:	9a a1       	ldd	r25, Y+34	; 0x22
     852:	9e 8f       	std	Y+30, r25	; 0x1e
     854:	8d 8f       	std	Y+29, r24	; 0x1d
     856:	8d 8d       	ldd	r24, Y+29	; 0x1d
     858:	9e 8d       	ldd	r25, Y+30	; 0x1e
     85a:	01 97       	sbiw	r24, 0x01	; 1
     85c:	f1 f7       	brne	.-4      	; 0x85a <__stack+0x3fb>
     85e:	9e 8f       	std	Y+30, r25	; 0x1e
     860:	8d 8f       	std	Y+29, r24	; 0x1d
	_delay_ms(5);					//delay
	cbit(lcd_port,EN);				//Clear Enable Pin
     862:	a5 e3       	ldi	r26, 0x35	; 53
     864:	b0 e0       	ldi	r27, 0x00	; 0
     866:	e5 e3       	ldi	r30, 0x35	; 53
     868:	f0 e0       	ldi	r31, 0x00	; 0
     86a:	80 81       	ld	r24, Z
     86c:	8b 7f       	andi	r24, 0xFB	; 251
     86e:	8c 93       	st	X, r24
     870:	80 e0       	ldi	r24, 0x00	; 0
     872:	90 e0       	ldi	r25, 0x00	; 0
     874:	a0 e8       	ldi	r26, 0x80	; 128
     876:	bf e3       	ldi	r27, 0x3F	; 63
     878:	89 8f       	std	Y+25, r24	; 0x19
     87a:	9a 8f       	std	Y+26, r25	; 0x1a
     87c:	ab 8f       	std	Y+27, r26	; 0x1b
     87e:	bc 8f       	std	Y+28, r27	; 0x1c
 */
void
_delay_ms(double __ms)
{
	uint16_t __ticks;
	double __tmp = ((F_CPU) / 4e3) * __ms;
     880:	69 8d       	ldd	r22, Y+25	; 0x19
     882:	7a 8d       	ldd	r23, Y+26	; 0x1a
     884:	8b 8d       	ldd	r24, Y+27	; 0x1b
     886:	9c 8d       	ldd	r25, Y+28	; 0x1c
     888:	26 e6       	ldi	r18, 0x66	; 102
     88a:	36 e6       	ldi	r19, 0x66	; 102
     88c:	46 ee       	ldi	r20, 0xE6	; 230
     88e:	54 e4       	ldi	r21, 0x44	; 68
     890:	0e 94 fc 0f 	call	0x1ff8	; 0x1ff8 <__mulsf3>
     894:	dc 01       	movw	r26, r24
     896:	cb 01       	movw	r24, r22
     898:	8d 8b       	std	Y+21, r24	; 0x15
     89a:	9e 8b       	std	Y+22, r25	; 0x16
     89c:	af 8b       	std	Y+23, r26	; 0x17
     89e:	b8 8f       	std	Y+24, r27	; 0x18
	if (__tmp < 1.0)
     8a0:	6d 89       	ldd	r22, Y+21	; 0x15
     8a2:	7e 89       	ldd	r23, Y+22	; 0x16
     8a4:	8f 89       	ldd	r24, Y+23	; 0x17
     8a6:	98 8d       	ldd	r25, Y+24	; 0x18
     8a8:	20 e0       	ldi	r18, 0x00	; 0
     8aa:	30 e0       	ldi	r19, 0x00	; 0
     8ac:	40 e8       	ldi	r20, 0x80	; 128
     8ae:	5f e3       	ldi	r21, 0x3F	; 63
     8b0:	0e 94 56 11 	call	0x22ac	; 0x22ac <__ltsf2>
     8b4:	88 23       	and	r24, r24
     8b6:	2c f4       	brge	.+10     	; 0x8c2 <__stack+0x463>
		__ticks = 1;
     8b8:	81 e0       	ldi	r24, 0x01	; 1
     8ba:	90 e0       	ldi	r25, 0x00	; 0
     8bc:	9c 8b       	std	Y+20, r25	; 0x14
     8be:	8b 8b       	std	Y+19, r24	; 0x13
     8c0:	3f c0       	rjmp	.+126    	; 0x940 <__stack+0x4e1>
	else if (__tmp > 65535)
     8c2:	6d 89       	ldd	r22, Y+21	; 0x15
     8c4:	7e 89       	ldd	r23, Y+22	; 0x16
     8c6:	8f 89       	ldd	r24, Y+23	; 0x17
     8c8:	98 8d       	ldd	r25, Y+24	; 0x18
     8ca:	20 e0       	ldi	r18, 0x00	; 0
     8cc:	3f ef       	ldi	r19, 0xFF	; 255
     8ce:	4f e7       	ldi	r20, 0x7F	; 127
     8d0:	57 e4       	ldi	r21, 0x47	; 71
     8d2:	0e 94 f6 10 	call	0x21ec	; 0x21ec <__gtsf2>
     8d6:	18 16       	cp	r1, r24
     8d8:	4c f5       	brge	.+82     	; 0x92c <__stack+0x4cd>
	{
		//	__ticks = requested delay in 1/10 ms
		__ticks = (uint16_t) (__ms * 10.0);
     8da:	69 8d       	ldd	r22, Y+25	; 0x19
     8dc:	7a 8d       	ldd	r23, Y+26	; 0x1a
     8de:	8b 8d       	ldd	r24, Y+27	; 0x1b
     8e0:	9c 8d       	ldd	r25, Y+28	; 0x1c
     8e2:	20 e0       	ldi	r18, 0x00	; 0
     8e4:	30 e0       	ldi	r19, 0x00	; 0
     8e6:	40 e2       	ldi	r20, 0x20	; 32
     8e8:	51 e4       	ldi	r21, 0x41	; 65
     8ea:	0e 94 fc 0f 	call	0x1ff8	; 0x1ff8 <__mulsf3>
     8ee:	dc 01       	movw	r26, r24
     8f0:	cb 01       	movw	r24, r22
     8f2:	bc 01       	movw	r22, r24
     8f4:	cd 01       	movw	r24, r26
     8f6:	0e 94 26 0e 	call	0x1c4c	; 0x1c4c <__fixunssfsi>
     8fa:	dc 01       	movw	r26, r24
     8fc:	cb 01       	movw	r24, r22
     8fe:	9c 8b       	std	Y+20, r25	; 0x14
     900:	8b 8b       	std	Y+19, r24	; 0x13
     902:	0f c0       	rjmp	.+30     	; 0x922 <__stack+0x4c3>
     904:	88 eb       	ldi	r24, 0xB8	; 184
     906:	90 e0       	ldi	r25, 0x00	; 0
     908:	9a 8b       	std	Y+18, r25	; 0x12
     90a:	89 8b       	std	Y+17, r24	; 0x11
     90c:	89 89       	ldd	r24, Y+17	; 0x11
     90e:	9a 89       	ldd	r25, Y+18	; 0x12
     910:	01 97       	sbiw	r24, 0x01	; 1
     912:	f1 f7       	brne	.-4      	; 0x910 <__stack+0x4b1>
     914:	9a 8b       	std	Y+18, r25	; 0x12
     916:	89 8b       	std	Y+17, r24	; 0x11
		while(__ticks)
		{
			// wait 1/10 ms
			_delay_loop_2(((F_CPU) / 4e3) / 10);
			__ticks --;
     918:	8b 89       	ldd	r24, Y+19	; 0x13
     91a:	9c 89       	ldd	r25, Y+20	; 0x14
     91c:	01 97       	sbiw	r24, 0x01	; 1
     91e:	9c 8b       	std	Y+20, r25	; 0x14
     920:	8b 8b       	std	Y+19, r24	; 0x13
		__ticks = 1;
	else if (__tmp > 65535)
	{
		//	__ticks = requested delay in 1/10 ms
		__ticks = (uint16_t) (__ms * 10.0);
		while(__ticks)
     922:	8b 89       	ldd	r24, Y+19	; 0x13
     924:	9c 89       	ldd	r25, Y+20	; 0x14
     926:	00 97       	sbiw	r24, 0x00	; 0
     928:	69 f7       	brne	.-38     	; 0x904 <__stack+0x4a5>
     92a:	14 c0       	rjmp	.+40     	; 0x954 <__stack+0x4f5>
			__ticks --;
		}
		return;
	}
	else
		__ticks = (uint16_t)__tmp;
     92c:	6d 89       	ldd	r22, Y+21	; 0x15
     92e:	7e 89       	ldd	r23, Y+22	; 0x16
     930:	8f 89       	ldd	r24, Y+23	; 0x17
     932:	98 8d       	ldd	r25, Y+24	; 0x18
     934:	0e 94 26 0e 	call	0x1c4c	; 0x1c4c <__fixunssfsi>
     938:	dc 01       	movw	r26, r24
     93a:	cb 01       	movw	r24, r22
     93c:	9c 8b       	std	Y+20, r25	; 0x14
     93e:	8b 8b       	std	Y+19, r24	; 0x13
     940:	8b 89       	ldd	r24, Y+19	; 0x13
     942:	9c 89       	ldd	r25, Y+20	; 0x14
     944:	98 8b       	std	Y+16, r25	; 0x10
     946:	8f 87       	std	Y+15, r24	; 0x0f
     948:	8f 85       	ldd	r24, Y+15	; 0x0f
     94a:	98 89       	ldd	r25, Y+16	; 0x10
     94c:	01 97       	sbiw	r24, 0x01	; 1
     94e:	f1 f7       	brne	.-4      	; 0x94c <__stack+0x4ed>
     950:	98 8b       	std	Y+16, r25	; 0x10
     952:	8f 87       	std	Y+15, r24	; 0x0f

	_delay_ms(1);

	cbit(lcd_port,RS);				//RS=0 --- Command Input
     954:	a5 e3       	ldi	r26, 0x35	; 53
     956:	b0 e0       	ldi	r27, 0x00	; 0
     958:	e5 e3       	ldi	r30, 0x35	; 53
     95a:	f0 e0       	ldi	r31, 0x00	; 0
     95c:	80 81       	ld	r24, Z
     95e:	8e 7f       	andi	r24, 0xFE	; 254
     960:	8c 93       	st	X, r24
	cbit(lcd_port,RW);				//RW=0 --- Writing to LCD
     962:	a5 e3       	ldi	r26, 0x35	; 53
     964:	b0 e0       	ldi	r27, 0x00	; 0
     966:	e5 e3       	ldi	r30, 0x35	; 53
     968:	f0 e0       	ldi	r31, 0x00	; 0
     96a:	80 81       	ld	r24, Z
     96c:	8d 7f       	andi	r24, 0xFD	; 253
     96e:	8c 93       	st	X, r24
	lcd_port = 0x20;				//Sending 2 in the upper nibble to initialize LCD 4-bit mode
     970:	e5 e3       	ldi	r30, 0x35	; 53
     972:	f0 e0       	ldi	r31, 0x00	; 0
     974:	80 e2       	ldi	r24, 0x20	; 32
     976:	80 83       	st	Z, r24
	sbit(lcd_port,EN);				//Set Enable Pin
     978:	a5 e3       	ldi	r26, 0x35	; 53
     97a:	b0 e0       	ldi	r27, 0x00	; 0
     97c:	e5 e3       	ldi	r30, 0x35	; 53
     97e:	f0 e0       	ldi	r31, 0x00	; 0
     980:	80 81       	ld	r24, Z
     982:	84 60       	ori	r24, 0x04	; 4
     984:	8c 93       	st	X, r24
     986:	80 e0       	ldi	r24, 0x00	; 0
     988:	90 e0       	ldi	r25, 0x00	; 0
     98a:	a0 ea       	ldi	r26, 0xA0	; 160
     98c:	b0 e4       	ldi	r27, 0x40	; 64
     98e:	8b 87       	std	Y+11, r24	; 0x0b
     990:	9c 87       	std	Y+12, r25	; 0x0c
     992:	ad 87       	std	Y+13, r26	; 0x0d
     994:	be 87       	std	Y+14, r27	; 0x0e
 */
void
_delay_ms(double __ms)
{
	uint16_t __ticks;
	double __tmp = ((F_CPU) / 4e3) * __ms;
     996:	6b 85       	ldd	r22, Y+11	; 0x0b
     998:	7c 85       	ldd	r23, Y+12	; 0x0c
     99a:	8d 85       	ldd	r24, Y+13	; 0x0d
     99c:	9e 85       	ldd	r25, Y+14	; 0x0e
     99e:	26 e6       	ldi	r18, 0x66	; 102
     9a0:	36 e6       	ldi	r19, 0x66	; 102
     9a2:	46 ee       	ldi	r20, 0xE6	; 230
     9a4:	54 e4       	ldi	r21, 0x44	; 68
     9a6:	0e 94 fc 0f 	call	0x1ff8	; 0x1ff8 <__mulsf3>
     9aa:	dc 01       	movw	r26, r24
     9ac:	cb 01       	movw	r24, r22
     9ae:	8f 83       	std	Y+7, r24	; 0x07
     9b0:	98 87       	std	Y+8, r25	; 0x08
     9b2:	a9 87       	std	Y+9, r26	; 0x09
     9b4:	ba 87       	std	Y+10, r27	; 0x0a
	if (__tmp < 1.0)
     9b6:	6f 81       	ldd	r22, Y+7	; 0x07
     9b8:	78 85       	ldd	r23, Y+8	; 0x08
     9ba:	89 85       	ldd	r24, Y+9	; 0x09
     9bc:	9a 85       	ldd	r25, Y+10	; 0x0a
     9be:	20 e0       	ldi	r18, 0x00	; 0
     9c0:	30 e0       	ldi	r19, 0x00	; 0
     9c2:	40 e8       	ldi	r20, 0x80	; 128
     9c4:	5f e3       	ldi	r21, 0x3F	; 63
     9c6:	0e 94 56 11 	call	0x22ac	; 0x22ac <__ltsf2>
     9ca:	88 23       	and	r24, r24
     9cc:	2c f4       	brge	.+10     	; 0x9d8 <__stack+0x579>
		__ticks = 1;
     9ce:	81 e0       	ldi	r24, 0x01	; 1
     9d0:	90 e0       	ldi	r25, 0x00	; 0
     9d2:	9e 83       	std	Y+6, r25	; 0x06
     9d4:	8d 83       	std	Y+5, r24	; 0x05
     9d6:	3f c0       	rjmp	.+126    	; 0xa56 <__stack+0x5f7>
	else if (__tmp > 65535)
     9d8:	6f 81       	ldd	r22, Y+7	; 0x07
     9da:	78 85       	ldd	r23, Y+8	; 0x08
     9dc:	89 85       	ldd	r24, Y+9	; 0x09
     9de:	9a 85       	ldd	r25, Y+10	; 0x0a
     9e0:	20 e0       	ldi	r18, 0x00	; 0
     9e2:	3f ef       	ldi	r19, 0xFF	; 255
     9e4:	4f e7       	ldi	r20, 0x7F	; 127
     9e6:	57 e4       	ldi	r21, 0x47	; 71
     9e8:	0e 94 f6 10 	call	0x21ec	; 0x21ec <__gtsf2>
     9ec:	18 16       	cp	r1, r24
     9ee:	4c f5       	brge	.+82     	; 0xa42 <__stack+0x5e3>
	{
		//	__ticks = requested delay in 1/10 ms
		__ticks = (uint16_t) (__ms * 10.0);
     9f0:	6b 85       	ldd	r22, Y+11	; 0x0b
     9f2:	7c 85       	ldd	r23, Y+12	; 0x0c
     9f4:	8d 85       	ldd	r24, Y+13	; 0x0d
     9f6:	9e 85       	ldd	r25, Y+14	; 0x0e
     9f8:	20 e0       	ldi	r18, 0x00	; 0
     9fa:	30 e0       	ldi	r19, 0x00	; 0
     9fc:	40 e2       	ldi	r20, 0x20	; 32
     9fe:	51 e4       	ldi	r21, 0x41	; 65
     a00:	0e 94 fc 0f 	call	0x1ff8	; 0x1ff8 <__mulsf3>
     a04:	dc 01       	movw	r26, r24
     a06:	cb 01       	movw	r24, r22
     a08:	bc 01       	movw	r22, r24
     a0a:	cd 01       	movw	r24, r26
     a0c:	0e 94 26 0e 	call	0x1c4c	; 0x1c4c <__fixunssfsi>
     a10:	dc 01       	movw	r26, r24
     a12:	cb 01       	movw	r24, r22
     a14:	9e 83       	std	Y+6, r25	; 0x06
     a16:	8d 83       	std	Y+5, r24	; 0x05
     a18:	0f c0       	rjmp	.+30     	; 0xa38 <__stack+0x5d9>
     a1a:	88 eb       	ldi	r24, 0xB8	; 184
     a1c:	90 e0       	ldi	r25, 0x00	; 0
     a1e:	9c 83       	std	Y+4, r25	; 0x04
     a20:	8b 83       	std	Y+3, r24	; 0x03
     a22:	8b 81       	ldd	r24, Y+3	; 0x03
     a24:	9c 81       	ldd	r25, Y+4	; 0x04
     a26:	01 97       	sbiw	r24, 0x01	; 1
     a28:	f1 f7       	brne	.-4      	; 0xa26 <__stack+0x5c7>
     a2a:	9c 83       	std	Y+4, r25	; 0x04
     a2c:	8b 83       	std	Y+3, r24	; 0x03
		while(__ticks)
		{
			// wait 1/10 ms
			_delay_loop_2(((F_CPU) / 4e3) / 10);
			__ticks --;
     a2e:	8d 81       	ldd	r24, Y+5	; 0x05
     a30:	9e 81       	ldd	r25, Y+6	; 0x06
     a32:	01 97       	sbiw	r24, 0x01	; 1
     a34:	9e 83       	std	Y+6, r25	; 0x06
     a36:	8d 83       	std	Y+5, r24	; 0x05
		__ticks = 1;
	else if (__tmp > 65535)
	{
		//	__ticks = requested delay in 1/10 ms
		__ticks = (uint16_t) (__ms * 10.0);
		while(__ticks)
     a38:	8d 81       	ldd	r24, Y+5	; 0x05
     a3a:	9e 81       	ldd	r25, Y+6	; 0x06
     a3c:	00 97       	sbiw	r24, 0x00	; 0
     a3e:	69 f7       	brne	.-38     	; 0xa1a <__stack+0x5bb>
     a40:	14 c0       	rjmp	.+40     	; 0xa6a <__stack+0x60b>
			__ticks --;
		}
		return;
	}
	else
		__ticks = (uint16_t)__tmp;
     a42:	6f 81       	ldd	r22, Y+7	; 0x07
     a44:	78 85       	ldd	r23, Y+8	; 0x08
     a46:	89 85       	ldd	r24, Y+9	; 0x09
     a48:	9a 85       	ldd	r25, Y+10	; 0x0a
     a4a:	0e 94 26 0e 	call	0x1c4c	; 0x1c4c <__fixunssfsi>
     a4e:	dc 01       	movw	r26, r24
     a50:	cb 01       	movw	r24, r22
     a52:	9e 83       	std	Y+6, r25	; 0x06
     a54:	8d 83       	std	Y+5, r24	; 0x05
     a56:	8d 81       	ldd	r24, Y+5	; 0x05
     a58:	9e 81       	ldd	r25, Y+6	; 0x06
     a5a:	9a 83       	std	Y+2, r25	; 0x02
     a5c:	89 83       	std	Y+1, r24	; 0x01
     a5e:	89 81       	ldd	r24, Y+1	; 0x01
     a60:	9a 81       	ldd	r25, Y+2	; 0x02
     a62:	01 97       	sbiw	r24, 0x01	; 1
     a64:	f1 f7       	brne	.-4      	; 0xa62 <__stack+0x603>
     a66:	9a 83       	std	Y+2, r25	; 0x02
     a68:	89 83       	std	Y+1, r24	; 0x01
	_delay_ms(5);					//delay
	cbit(lcd_port,EN);				//Clear Enable Pin
     a6a:	a5 e3       	ldi	r26, 0x35	; 53
     a6c:	b0 e0       	ldi	r27, 0x00	; 0
     a6e:	e5 e3       	ldi	r30, 0x35	; 53
     a70:	f0 e0       	ldi	r31, 0x00	; 0
     a72:	80 81       	ld	r24, Z
     a74:	8b 7f       	andi	r24, 0xFB	; 251
     a76:	8c 93       	st	X, r24
}
     a78:	c0 59       	subi	r28, 0x90	; 144
     a7a:	df 4f       	sbci	r29, 0xFF	; 255
     a7c:	0f b6       	in	r0, 0x3f	; 63
     a7e:	f8 94       	cli
     a80:	de bf       	out	0x3e, r29	; 62
     a82:	0f be       	out	0x3f, r0	; 63
     a84:	cd bf       	out	0x3d, r28	; 61
     a86:	cf 91       	pop	r28
     a88:	df 91       	pop	r29
     a8a:	1f 91       	pop	r17
     a8c:	0f 91       	pop	r16
     a8e:	08 95       	ret

00000a90 <lcd_init>:

//Function to Initialize LCD
void lcd_init()
{
     a90:	df 93       	push	r29
     a92:	cf 93       	push	r28
     a94:	cd b7       	in	r28, 0x3d	; 61
     a96:	de b7       	in	r29, 0x3e	; 62
     a98:	2e 97       	sbiw	r28, 0x0e	; 14
     a9a:	0f b6       	in	r0, 0x3f	; 63
     a9c:	f8 94       	cli
     a9e:	de bf       	out	0x3e, r29	; 62
     aa0:	0f be       	out	0x3f, r0	; 63
     aa2:	cd bf       	out	0x3d, r28	; 61
     aa4:	80 e0       	ldi	r24, 0x00	; 0
     aa6:	90 e0       	ldi	r25, 0x00	; 0
     aa8:	a0 e8       	ldi	r26, 0x80	; 128
     aaa:	bf e3       	ldi	r27, 0x3F	; 63
     aac:	8b 87       	std	Y+11, r24	; 0x0b
     aae:	9c 87       	std	Y+12, r25	; 0x0c
     ab0:	ad 87       	std	Y+13, r26	; 0x0d
     ab2:	be 87       	std	Y+14, r27	; 0x0e
 */
void
_delay_ms(double __ms)
{
	uint16_t __ticks;
	double __tmp = ((F_CPU) / 4e3) * __ms;
     ab4:	6b 85       	ldd	r22, Y+11	; 0x0b
     ab6:	7c 85       	ldd	r23, Y+12	; 0x0c
     ab8:	8d 85       	ldd	r24, Y+13	; 0x0d
     aba:	9e 85       	ldd	r25, Y+14	; 0x0e
     abc:	26 e6       	ldi	r18, 0x66	; 102
     abe:	36 e6       	ldi	r19, 0x66	; 102
     ac0:	46 ee       	ldi	r20, 0xE6	; 230
     ac2:	54 e4       	ldi	r21, 0x44	; 68
     ac4:	0e 94 fc 0f 	call	0x1ff8	; 0x1ff8 <__mulsf3>
     ac8:	dc 01       	movw	r26, r24
     aca:	cb 01       	movw	r24, r22
     acc:	8f 83       	std	Y+7, r24	; 0x07
     ace:	98 87       	std	Y+8, r25	; 0x08
     ad0:	a9 87       	std	Y+9, r26	; 0x09
     ad2:	ba 87       	std	Y+10, r27	; 0x0a
	if (__tmp < 1.0)
     ad4:	6f 81       	ldd	r22, Y+7	; 0x07
     ad6:	78 85       	ldd	r23, Y+8	; 0x08
     ad8:	89 85       	ldd	r24, Y+9	; 0x09
     ada:	9a 85       	ldd	r25, Y+10	; 0x0a
     adc:	20 e0       	ldi	r18, 0x00	; 0
     ade:	30 e0       	ldi	r19, 0x00	; 0
     ae0:	40 e8       	ldi	r20, 0x80	; 128
     ae2:	5f e3       	ldi	r21, 0x3F	; 63
     ae4:	0e 94 56 11 	call	0x22ac	; 0x22ac <__ltsf2>
     ae8:	88 23       	and	r24, r24
     aea:	2c f4       	brge	.+10     	; 0xaf6 <lcd_init+0x66>
		__ticks = 1;
     aec:	81 e0       	ldi	r24, 0x01	; 1
     aee:	90 e0       	ldi	r25, 0x00	; 0
     af0:	9e 83       	std	Y+6, r25	; 0x06
     af2:	8d 83       	std	Y+5, r24	; 0x05
     af4:	3f c0       	rjmp	.+126    	; 0xb74 <lcd_init+0xe4>
	else if (__tmp > 65535)
     af6:	6f 81       	ldd	r22, Y+7	; 0x07
     af8:	78 85       	ldd	r23, Y+8	; 0x08
     afa:	89 85       	ldd	r24, Y+9	; 0x09
     afc:	9a 85       	ldd	r25, Y+10	; 0x0a
     afe:	20 e0       	ldi	r18, 0x00	; 0
     b00:	3f ef       	ldi	r19, 0xFF	; 255
     b02:	4f e7       	ldi	r20, 0x7F	; 127
     b04:	57 e4       	ldi	r21, 0x47	; 71
     b06:	0e 94 f6 10 	call	0x21ec	; 0x21ec <__gtsf2>
     b0a:	18 16       	cp	r1, r24
     b0c:	4c f5       	brge	.+82     	; 0xb60 <lcd_init+0xd0>
	{
		//	__ticks = requested delay in 1/10 ms
		__ticks = (uint16_t) (__ms * 10.0);
     b0e:	6b 85       	ldd	r22, Y+11	; 0x0b
     b10:	7c 85       	ldd	r23, Y+12	; 0x0c
     b12:	8d 85       	ldd	r24, Y+13	; 0x0d
     b14:	9e 85       	ldd	r25, Y+14	; 0x0e
     b16:	20 e0       	ldi	r18, 0x00	; 0
     b18:	30 e0       	ldi	r19, 0x00	; 0
     b1a:	40 e2       	ldi	r20, 0x20	; 32
     b1c:	51 e4       	ldi	r21, 0x41	; 65
     b1e:	0e 94 fc 0f 	call	0x1ff8	; 0x1ff8 <__mulsf3>
     b22:	dc 01       	movw	r26, r24
     b24:	cb 01       	movw	r24, r22
     b26:	bc 01       	movw	r22, r24
     b28:	cd 01       	movw	r24, r26
     b2a:	0e 94 26 0e 	call	0x1c4c	; 0x1c4c <__fixunssfsi>
     b2e:	dc 01       	movw	r26, r24
     b30:	cb 01       	movw	r24, r22
     b32:	9e 83       	std	Y+6, r25	; 0x06
     b34:	8d 83       	std	Y+5, r24	; 0x05
     b36:	0f c0       	rjmp	.+30     	; 0xb56 <lcd_init+0xc6>
     b38:	88 eb       	ldi	r24, 0xB8	; 184
     b3a:	90 e0       	ldi	r25, 0x00	; 0
     b3c:	9c 83       	std	Y+4, r25	; 0x04
     b3e:	8b 83       	std	Y+3, r24	; 0x03
     b40:	8b 81       	ldd	r24, Y+3	; 0x03
     b42:	9c 81       	ldd	r25, Y+4	; 0x04
     b44:	01 97       	sbiw	r24, 0x01	; 1
     b46:	f1 f7       	brne	.-4      	; 0xb44 <lcd_init+0xb4>
     b48:	9c 83       	std	Y+4, r25	; 0x04
     b4a:	8b 83       	std	Y+3, r24	; 0x03
		while(__ticks)
		{
			// wait 1/10 ms
			_delay_loop_2(((F_CPU) / 4e3) / 10);
			__ticks --;
     b4c:	8d 81       	ldd	r24, Y+5	; 0x05
     b4e:	9e 81       	ldd	r25, Y+6	; 0x06
     b50:	01 97       	sbiw	r24, 0x01	; 1
     b52:	9e 83       	std	Y+6, r25	; 0x06
     b54:	8d 83       	std	Y+5, r24	; 0x05
		__ticks = 1;
	else if (__tmp > 65535)
	{
		//	__ticks = requested delay in 1/10 ms
		__ticks = (uint16_t) (__ms * 10.0);
		while(__ticks)
     b56:	8d 81       	ldd	r24, Y+5	; 0x05
     b58:	9e 81       	ldd	r25, Y+6	; 0x06
     b5a:	00 97       	sbiw	r24, 0x00	; 0
     b5c:	69 f7       	brne	.-38     	; 0xb38 <lcd_init+0xa8>
     b5e:	14 c0       	rjmp	.+40     	; 0xb88 <lcd_init+0xf8>
			__ticks --;
		}
		return;
	}
	else
		__ticks = (uint16_t)__tmp;
     b60:	6f 81       	ldd	r22, Y+7	; 0x07
     b62:	78 85       	ldd	r23, Y+8	; 0x08
     b64:	89 85       	ldd	r24, Y+9	; 0x09
     b66:	9a 85       	ldd	r25, Y+10	; 0x0a
     b68:	0e 94 26 0e 	call	0x1c4c	; 0x1c4c <__fixunssfsi>
     b6c:	dc 01       	movw	r26, r24
     b6e:	cb 01       	movw	r24, r22
     b70:	9e 83       	std	Y+6, r25	; 0x06
     b72:	8d 83       	std	Y+5, r24	; 0x05
     b74:	8d 81       	ldd	r24, Y+5	; 0x05
     b76:	9e 81       	ldd	r25, Y+6	; 0x06
     b78:	9a 83       	std	Y+2, r25	; 0x02
     b7a:	89 83       	std	Y+1, r24	; 0x01
     b7c:	89 81       	ldd	r24, Y+1	; 0x01
     b7e:	9a 81       	ldd	r25, Y+2	; 0x02
     b80:	01 97       	sbiw	r24, 0x01	; 1
     b82:	f1 f7       	brne	.-4      	; 0xb80 <lcd_init+0xf0>
     b84:	9a 83       	std	Y+2, r25	; 0x02
     b86:	89 83       	std	Y+1, r24	; 0x01
	_delay_ms(1);

	lcd_wr_command(0x28); //4-bit mode and 5x8 dot character font
     b88:	88 e2       	ldi	r24, 0x28	; 40
     b8a:	0e 94 dc 05 	call	0xbb8	; 0xbb8 <lcd_wr_command>
	lcd_wr_command(0x01); //Clear LCD display
     b8e:	81 e0       	ldi	r24, 0x01	; 1
     b90:	0e 94 dc 05 	call	0xbb8	; 0xbb8 <lcd_wr_command>
	lcd_wr_command(0x06); //Auto increment cursor position
     b94:	86 e0       	ldi	r24, 0x06	; 6
     b96:	0e 94 dc 05 	call	0xbb8	; 0xbb8 <lcd_wr_command>
	lcd_wr_command(0x0E); //Turn on LCD and cursor
     b9a:	8e e0       	ldi	r24, 0x0E	; 14
     b9c:	0e 94 dc 05 	call	0xbb8	; 0xbb8 <lcd_wr_command>
	lcd_wr_command(0x80); //Set cursor position
     ba0:	80 e8       	ldi	r24, 0x80	; 128
     ba2:	0e 94 dc 05 	call	0xbb8	; 0xbb8 <lcd_wr_command>
}
     ba6:	2e 96       	adiw	r28, 0x0e	; 14
     ba8:	0f b6       	in	r0, 0x3f	; 63
     baa:	f8 94       	cli
     bac:	de bf       	out	0x3e, r29	; 62
     bae:	0f be       	out	0x3f, r0	; 63
     bb0:	cd bf       	out	0x3d, r28	; 61
     bb2:	cf 91       	pop	r28
     bb4:	df 91       	pop	r29
     bb6:	08 95       	ret

00000bb8 <lcd_wr_command>:

	 
//Function to write command on LCD
void lcd_wr_command(unsigned char cmd)
{
     bb8:	df 93       	push	r29
     bba:	cf 93       	push	r28
     bbc:	cd b7       	in	r28, 0x3d	; 61
     bbe:	de b7       	in	r29, 0x3e	; 62
     bc0:	6e 97       	sbiw	r28, 0x1e	; 30
     bc2:	0f b6       	in	r0, 0x3f	; 63
     bc4:	f8 94       	cli
     bc6:	de bf       	out	0x3e, r29	; 62
     bc8:	0f be       	out	0x3f, r0	; 63
     bca:	cd bf       	out	0x3d, r28	; 61
     bcc:	8e 8f       	std	Y+30, r24	; 0x1e
	unsigned char temp;
	temp = cmd;
     bce:	8e 8d       	ldd	r24, Y+30	; 0x1e
     bd0:	8d 8f       	std	Y+29, r24	; 0x1d
	temp = temp & 0xF0;
     bd2:	8d 8d       	ldd	r24, Y+29	; 0x1d
     bd4:	80 7f       	andi	r24, 0xF0	; 240
     bd6:	8d 8f       	std	Y+29, r24	; 0x1d
	lcd_port &= 0x0F;
     bd8:	a5 e3       	ldi	r26, 0x35	; 53
     bda:	b0 e0       	ldi	r27, 0x00	; 0
     bdc:	e5 e3       	ldi	r30, 0x35	; 53
     bde:	f0 e0       	ldi	r31, 0x00	; 0
     be0:	80 81       	ld	r24, Z
     be2:	8f 70       	andi	r24, 0x0F	; 15
     be4:	8c 93       	st	X, r24
	lcd_port |= temp;
     be6:	a5 e3       	ldi	r26, 0x35	; 53
     be8:	b0 e0       	ldi	r27, 0x00	; 0
     bea:	e5 e3       	ldi	r30, 0x35	; 53
     bec:	f0 e0       	ldi	r31, 0x00	; 0
     bee:	90 81       	ld	r25, Z
     bf0:	8d 8d       	ldd	r24, Y+29	; 0x1d
     bf2:	89 2b       	or	r24, r25
     bf4:	8c 93       	st	X, r24
	cbit(lcd_port,RS);
     bf6:	a5 e3       	ldi	r26, 0x35	; 53
     bf8:	b0 e0       	ldi	r27, 0x00	; 0
     bfa:	e5 e3       	ldi	r30, 0x35	; 53
     bfc:	f0 e0       	ldi	r31, 0x00	; 0
     bfe:	80 81       	ld	r24, Z
     c00:	8e 7f       	andi	r24, 0xFE	; 254
     c02:	8c 93       	st	X, r24
	cbit(lcd_port,RW);
     c04:	a5 e3       	ldi	r26, 0x35	; 53
     c06:	b0 e0       	ldi	r27, 0x00	; 0
     c08:	e5 e3       	ldi	r30, 0x35	; 53
     c0a:	f0 e0       	ldi	r31, 0x00	; 0
     c0c:	80 81       	ld	r24, Z
     c0e:	8d 7f       	andi	r24, 0xFD	; 253
     c10:	8c 93       	st	X, r24
	sbit(lcd_port,EN);
     c12:	a5 e3       	ldi	r26, 0x35	; 53
     c14:	b0 e0       	ldi	r27, 0x00	; 0
     c16:	e5 e3       	ldi	r30, 0x35	; 53
     c18:	f0 e0       	ldi	r31, 0x00	; 0
     c1a:	80 81       	ld	r24, Z
     c1c:	84 60       	ori	r24, 0x04	; 4
     c1e:	8c 93       	st	X, r24
     c20:	80 e0       	ldi	r24, 0x00	; 0
     c22:	90 e0       	ldi	r25, 0x00	; 0
     c24:	a0 ea       	ldi	r26, 0xA0	; 160
     c26:	b0 e4       	ldi	r27, 0x40	; 64
     c28:	89 8f       	std	Y+25, r24	; 0x19
     c2a:	9a 8f       	std	Y+26, r25	; 0x1a
     c2c:	ab 8f       	std	Y+27, r26	; 0x1b
     c2e:	bc 8f       	std	Y+28, r27	; 0x1c
 */
void
_delay_ms(double __ms)
{
	uint16_t __ticks;
	double __tmp = ((F_CPU) / 4e3) * __ms;
     c30:	69 8d       	ldd	r22, Y+25	; 0x19
     c32:	7a 8d       	ldd	r23, Y+26	; 0x1a
     c34:	8b 8d       	ldd	r24, Y+27	; 0x1b
     c36:	9c 8d       	ldd	r25, Y+28	; 0x1c
     c38:	26 e6       	ldi	r18, 0x66	; 102
     c3a:	36 e6       	ldi	r19, 0x66	; 102
     c3c:	46 ee       	ldi	r20, 0xE6	; 230
     c3e:	54 e4       	ldi	r21, 0x44	; 68
     c40:	0e 94 fc 0f 	call	0x1ff8	; 0x1ff8 <__mulsf3>
     c44:	dc 01       	movw	r26, r24
     c46:	cb 01       	movw	r24, r22
     c48:	8d 8b       	std	Y+21, r24	; 0x15
     c4a:	9e 8b       	std	Y+22, r25	; 0x16
     c4c:	af 8b       	std	Y+23, r26	; 0x17
     c4e:	b8 8f       	std	Y+24, r27	; 0x18
	if (__tmp < 1.0)
     c50:	6d 89       	ldd	r22, Y+21	; 0x15
     c52:	7e 89       	ldd	r23, Y+22	; 0x16
     c54:	8f 89       	ldd	r24, Y+23	; 0x17
     c56:	98 8d       	ldd	r25, Y+24	; 0x18
     c58:	20 e0       	ldi	r18, 0x00	; 0
     c5a:	30 e0       	ldi	r19, 0x00	; 0
     c5c:	40 e8       	ldi	r20, 0x80	; 128
     c5e:	5f e3       	ldi	r21, 0x3F	; 63
     c60:	0e 94 56 11 	call	0x22ac	; 0x22ac <__ltsf2>
     c64:	88 23       	and	r24, r24
     c66:	2c f4       	brge	.+10     	; 0xc72 <lcd_wr_command+0xba>
		__ticks = 1;
     c68:	81 e0       	ldi	r24, 0x01	; 1
     c6a:	90 e0       	ldi	r25, 0x00	; 0
     c6c:	9c 8b       	std	Y+20, r25	; 0x14
     c6e:	8b 8b       	std	Y+19, r24	; 0x13
     c70:	3f c0       	rjmp	.+126    	; 0xcf0 <lcd_wr_command+0x138>
	else if (__tmp > 65535)
     c72:	6d 89       	ldd	r22, Y+21	; 0x15
     c74:	7e 89       	ldd	r23, Y+22	; 0x16
     c76:	8f 89       	ldd	r24, Y+23	; 0x17
     c78:	98 8d       	ldd	r25, Y+24	; 0x18
     c7a:	20 e0       	ldi	r18, 0x00	; 0
     c7c:	3f ef       	ldi	r19, 0xFF	; 255
     c7e:	4f e7       	ldi	r20, 0x7F	; 127
     c80:	57 e4       	ldi	r21, 0x47	; 71
     c82:	0e 94 f6 10 	call	0x21ec	; 0x21ec <__gtsf2>
     c86:	18 16       	cp	r1, r24
     c88:	4c f5       	brge	.+82     	; 0xcdc <lcd_wr_command+0x124>
	{
		//	__ticks = requested delay in 1/10 ms
		__ticks = (uint16_t) (__ms * 10.0);
     c8a:	69 8d       	ldd	r22, Y+25	; 0x19
     c8c:	7a 8d       	ldd	r23, Y+26	; 0x1a
     c8e:	8b 8d       	ldd	r24, Y+27	; 0x1b
     c90:	9c 8d       	ldd	r25, Y+28	; 0x1c
     c92:	20 e0       	ldi	r18, 0x00	; 0
     c94:	30 e0       	ldi	r19, 0x00	; 0
     c96:	40 e2       	ldi	r20, 0x20	; 32
     c98:	51 e4       	ldi	r21, 0x41	; 65
     c9a:	0e 94 fc 0f 	call	0x1ff8	; 0x1ff8 <__mulsf3>
     c9e:	dc 01       	movw	r26, r24
     ca0:	cb 01       	movw	r24, r22
     ca2:	bc 01       	movw	r22, r24
     ca4:	cd 01       	movw	r24, r26
     ca6:	0e 94 26 0e 	call	0x1c4c	; 0x1c4c <__fixunssfsi>
     caa:	dc 01       	movw	r26, r24
     cac:	cb 01       	movw	r24, r22
     cae:	9c 8b       	std	Y+20, r25	; 0x14
     cb0:	8b 8b       	std	Y+19, r24	; 0x13
     cb2:	0f c0       	rjmp	.+30     	; 0xcd2 <lcd_wr_command+0x11a>
     cb4:	88 eb       	ldi	r24, 0xB8	; 184
     cb6:	90 e0       	ldi	r25, 0x00	; 0
     cb8:	9a 8b       	std	Y+18, r25	; 0x12
     cba:	89 8b       	std	Y+17, r24	; 0x11
     cbc:	89 89       	ldd	r24, Y+17	; 0x11
     cbe:	9a 89       	ldd	r25, Y+18	; 0x12
     cc0:	01 97       	sbiw	r24, 0x01	; 1
     cc2:	f1 f7       	brne	.-4      	; 0xcc0 <lcd_wr_command+0x108>
     cc4:	9a 8b       	std	Y+18, r25	; 0x12
     cc6:	89 8b       	std	Y+17, r24	; 0x11
		while(__ticks)
		{
			// wait 1/10 ms
			_delay_loop_2(((F_CPU) / 4e3) / 10);
			__ticks --;
     cc8:	8b 89       	ldd	r24, Y+19	; 0x13
     cca:	9c 89       	ldd	r25, Y+20	; 0x14
     ccc:	01 97       	sbiw	r24, 0x01	; 1
     cce:	9c 8b       	std	Y+20, r25	; 0x14
     cd0:	8b 8b       	std	Y+19, r24	; 0x13
		__ticks = 1;
	else if (__tmp > 65535)
	{
		//	__ticks = requested delay in 1/10 ms
		__ticks = (uint16_t) (__ms * 10.0);
		while(__ticks)
     cd2:	8b 89       	ldd	r24, Y+19	; 0x13
     cd4:	9c 89       	ldd	r25, Y+20	; 0x14
     cd6:	00 97       	sbiw	r24, 0x00	; 0
     cd8:	69 f7       	brne	.-38     	; 0xcb4 <lcd_wr_command+0xfc>
     cda:	14 c0       	rjmp	.+40     	; 0xd04 <lcd_wr_command+0x14c>
			__ticks --;
		}
		return;
	}
	else
		__ticks = (uint16_t)__tmp;
     cdc:	6d 89       	ldd	r22, Y+21	; 0x15
     cde:	7e 89       	ldd	r23, Y+22	; 0x16
     ce0:	8f 89       	ldd	r24, Y+23	; 0x17
     ce2:	98 8d       	ldd	r25, Y+24	; 0x18
     ce4:	0e 94 26 0e 	call	0x1c4c	; 0x1c4c <__fixunssfsi>
     ce8:	dc 01       	movw	r26, r24
     cea:	cb 01       	movw	r24, r22
     cec:	9c 8b       	std	Y+20, r25	; 0x14
     cee:	8b 8b       	std	Y+19, r24	; 0x13
     cf0:	8b 89       	ldd	r24, Y+19	; 0x13
     cf2:	9c 89       	ldd	r25, Y+20	; 0x14
     cf4:	98 8b       	std	Y+16, r25	; 0x10
     cf6:	8f 87       	std	Y+15, r24	; 0x0f
     cf8:	8f 85       	ldd	r24, Y+15	; 0x0f
     cfa:	98 89       	ldd	r25, Y+16	; 0x10
     cfc:	01 97       	sbiw	r24, 0x01	; 1
     cfe:	f1 f7       	brne	.-4      	; 0xcfc <lcd_wr_command+0x144>
     d00:	98 8b       	std	Y+16, r25	; 0x10
     d02:	8f 87       	std	Y+15, r24	; 0x0f
	_delay_ms(5);
	cbit(lcd_port,EN);
     d04:	a5 e3       	ldi	r26, 0x35	; 53
     d06:	b0 e0       	ldi	r27, 0x00	; 0
     d08:	e5 e3       	ldi	r30, 0x35	; 53
     d0a:	f0 e0       	ldi	r31, 0x00	; 0
     d0c:	80 81       	ld	r24, Z
     d0e:	8b 7f       	andi	r24, 0xFB	; 251
     d10:	8c 93       	st	X, r24
	
	cmd = cmd & 0x0F;
     d12:	8e 8d       	ldd	r24, Y+30	; 0x1e
     d14:	8f 70       	andi	r24, 0x0F	; 15
     d16:	8e 8f       	std	Y+30, r24	; 0x1e
	cmd = cmd<<4;
     d18:	8e 8d       	ldd	r24, Y+30	; 0x1e
     d1a:	82 95       	swap	r24
     d1c:	80 7f       	andi	r24, 0xF0	; 240
     d1e:	8e 8f       	std	Y+30, r24	; 0x1e
	lcd_port &= 0x0F;
     d20:	a5 e3       	ldi	r26, 0x35	; 53
     d22:	b0 e0       	ldi	r27, 0x00	; 0
     d24:	e5 e3       	ldi	r30, 0x35	; 53
     d26:	f0 e0       	ldi	r31, 0x00	; 0
     d28:	80 81       	ld	r24, Z
     d2a:	8f 70       	andi	r24, 0x0F	; 15
     d2c:	8c 93       	st	X, r24
	lcd_port |= cmd;
     d2e:	a5 e3       	ldi	r26, 0x35	; 53
     d30:	b0 e0       	ldi	r27, 0x00	; 0
     d32:	e5 e3       	ldi	r30, 0x35	; 53
     d34:	f0 e0       	ldi	r31, 0x00	; 0
     d36:	90 81       	ld	r25, Z
     d38:	8e 8d       	ldd	r24, Y+30	; 0x1e
     d3a:	89 2b       	or	r24, r25
     d3c:	8c 93       	st	X, r24
	cbit(lcd_port,RS);
     d3e:	a5 e3       	ldi	r26, 0x35	; 53
     d40:	b0 e0       	ldi	r27, 0x00	; 0
     d42:	e5 e3       	ldi	r30, 0x35	; 53
     d44:	f0 e0       	ldi	r31, 0x00	; 0
     d46:	80 81       	ld	r24, Z
     d48:	8e 7f       	andi	r24, 0xFE	; 254
     d4a:	8c 93       	st	X, r24
	cbit(lcd_port,RW);
     d4c:	a5 e3       	ldi	r26, 0x35	; 53
     d4e:	b0 e0       	ldi	r27, 0x00	; 0
     d50:	e5 e3       	ldi	r30, 0x35	; 53
     d52:	f0 e0       	ldi	r31, 0x00	; 0
     d54:	80 81       	ld	r24, Z
     d56:	8d 7f       	andi	r24, 0xFD	; 253
     d58:	8c 93       	st	X, r24
	sbit(lcd_port,EN);
     d5a:	a5 e3       	ldi	r26, 0x35	; 53
     d5c:	b0 e0       	ldi	r27, 0x00	; 0
     d5e:	e5 e3       	ldi	r30, 0x35	; 53
     d60:	f0 e0       	ldi	r31, 0x00	; 0
     d62:	80 81       	ld	r24, Z
     d64:	84 60       	ori	r24, 0x04	; 4
     d66:	8c 93       	st	X, r24
     d68:	80 e0       	ldi	r24, 0x00	; 0
     d6a:	90 e0       	ldi	r25, 0x00	; 0
     d6c:	a0 ea       	ldi	r26, 0xA0	; 160
     d6e:	b0 e4       	ldi	r27, 0x40	; 64
     d70:	8b 87       	std	Y+11, r24	; 0x0b
     d72:	9c 87       	std	Y+12, r25	; 0x0c
     d74:	ad 87       	std	Y+13, r26	; 0x0d
     d76:	be 87       	std	Y+14, r27	; 0x0e
 */
void
_delay_ms(double __ms)
{
	uint16_t __ticks;
	double __tmp = ((F_CPU) / 4e3) * __ms;
     d78:	6b 85       	ldd	r22, Y+11	; 0x0b
     d7a:	7c 85       	ldd	r23, Y+12	; 0x0c
     d7c:	8d 85       	ldd	r24, Y+13	; 0x0d
     d7e:	9e 85       	ldd	r25, Y+14	; 0x0e
     d80:	26 e6       	ldi	r18, 0x66	; 102
     d82:	36 e6       	ldi	r19, 0x66	; 102
     d84:	46 ee       	ldi	r20, 0xE6	; 230
     d86:	54 e4       	ldi	r21, 0x44	; 68
     d88:	0e 94 fc 0f 	call	0x1ff8	; 0x1ff8 <__mulsf3>
     d8c:	dc 01       	movw	r26, r24
     d8e:	cb 01       	movw	r24, r22
     d90:	8f 83       	std	Y+7, r24	; 0x07
     d92:	98 87       	std	Y+8, r25	; 0x08
     d94:	a9 87       	std	Y+9, r26	; 0x09
     d96:	ba 87       	std	Y+10, r27	; 0x0a
	if (__tmp < 1.0)
     d98:	6f 81       	ldd	r22, Y+7	; 0x07
     d9a:	78 85       	ldd	r23, Y+8	; 0x08
     d9c:	89 85       	ldd	r24, Y+9	; 0x09
     d9e:	9a 85       	ldd	r25, Y+10	; 0x0a
     da0:	20 e0       	ldi	r18, 0x00	; 0
     da2:	30 e0       	ldi	r19, 0x00	; 0
     da4:	40 e8       	ldi	r20, 0x80	; 128
     da6:	5f e3       	ldi	r21, 0x3F	; 63
     da8:	0e 94 56 11 	call	0x22ac	; 0x22ac <__ltsf2>
     dac:	88 23       	and	r24, r24
     dae:	2c f4       	brge	.+10     	; 0xdba <lcd_wr_command+0x202>
		__ticks = 1;
     db0:	81 e0       	ldi	r24, 0x01	; 1
     db2:	90 e0       	ldi	r25, 0x00	; 0
     db4:	9e 83       	std	Y+6, r25	; 0x06
     db6:	8d 83       	std	Y+5, r24	; 0x05
     db8:	3f c0       	rjmp	.+126    	; 0xe38 <lcd_wr_command+0x280>
	else if (__tmp > 65535)
     dba:	6f 81       	ldd	r22, Y+7	; 0x07
     dbc:	78 85       	ldd	r23, Y+8	; 0x08
     dbe:	89 85       	ldd	r24, Y+9	; 0x09
     dc0:	9a 85       	ldd	r25, Y+10	; 0x0a
     dc2:	20 e0       	ldi	r18, 0x00	; 0
     dc4:	3f ef       	ldi	r19, 0xFF	; 255
     dc6:	4f e7       	ldi	r20, 0x7F	; 127
     dc8:	57 e4       	ldi	r21, 0x47	; 71
     dca:	0e 94 f6 10 	call	0x21ec	; 0x21ec <__gtsf2>
     dce:	18 16       	cp	r1, r24
     dd0:	4c f5       	brge	.+82     	; 0xe24 <lcd_wr_command+0x26c>
	{
		//	__ticks = requested delay in 1/10 ms
		__ticks = (uint16_t) (__ms * 10.0);
     dd2:	6b 85       	ldd	r22, Y+11	; 0x0b
     dd4:	7c 85       	ldd	r23, Y+12	; 0x0c
     dd6:	8d 85       	ldd	r24, Y+13	; 0x0d
     dd8:	9e 85       	ldd	r25, Y+14	; 0x0e
     dda:	20 e0       	ldi	r18, 0x00	; 0
     ddc:	30 e0       	ldi	r19, 0x00	; 0
     dde:	40 e2       	ldi	r20, 0x20	; 32
     de0:	51 e4       	ldi	r21, 0x41	; 65
     de2:	0e 94 fc 0f 	call	0x1ff8	; 0x1ff8 <__mulsf3>
     de6:	dc 01       	movw	r26, r24
     de8:	cb 01       	movw	r24, r22
     dea:	bc 01       	movw	r22, r24
     dec:	cd 01       	movw	r24, r26
     dee:	0e 94 26 0e 	call	0x1c4c	; 0x1c4c <__fixunssfsi>
     df2:	dc 01       	movw	r26, r24
     df4:	cb 01       	movw	r24, r22
     df6:	9e 83       	std	Y+6, r25	; 0x06
     df8:	8d 83       	std	Y+5, r24	; 0x05
     dfa:	0f c0       	rjmp	.+30     	; 0xe1a <lcd_wr_command+0x262>
     dfc:	88 eb       	ldi	r24, 0xB8	; 184
     dfe:	90 e0       	ldi	r25, 0x00	; 0
     e00:	9c 83       	std	Y+4, r25	; 0x04
     e02:	8b 83       	std	Y+3, r24	; 0x03
     e04:	8b 81       	ldd	r24, Y+3	; 0x03
     e06:	9c 81       	ldd	r25, Y+4	; 0x04
     e08:	01 97       	sbiw	r24, 0x01	; 1
     e0a:	f1 f7       	brne	.-4      	; 0xe08 <lcd_wr_command+0x250>
     e0c:	9c 83       	std	Y+4, r25	; 0x04
     e0e:	8b 83       	std	Y+3, r24	; 0x03
		while(__ticks)
		{
			// wait 1/10 ms
			_delay_loop_2(((F_CPU) / 4e3) / 10);
			__ticks --;
     e10:	8d 81       	ldd	r24, Y+5	; 0x05
     e12:	9e 81       	ldd	r25, Y+6	; 0x06
     e14:	01 97       	sbiw	r24, 0x01	; 1
     e16:	9e 83       	std	Y+6, r25	; 0x06
     e18:	8d 83       	std	Y+5, r24	; 0x05
		__ticks = 1;
	else if (__tmp > 65535)
	{
		//	__ticks = requested delay in 1/10 ms
		__ticks = (uint16_t) (__ms * 10.0);
		while(__ticks)
     e1a:	8d 81       	ldd	r24, Y+5	; 0x05
     e1c:	9e 81       	ldd	r25, Y+6	; 0x06
     e1e:	00 97       	sbiw	r24, 0x00	; 0
     e20:	69 f7       	brne	.-38     	; 0xdfc <lcd_wr_command+0x244>
     e22:	14 c0       	rjmp	.+40     	; 0xe4c <lcd_wr_command+0x294>
			__ticks --;
		}
		return;
	}
	else
		__ticks = (uint16_t)__tmp;
     e24:	6f 81       	ldd	r22, Y+7	; 0x07
     e26:	78 85       	ldd	r23, Y+8	; 0x08
     e28:	89 85       	ldd	r24, Y+9	; 0x09
     e2a:	9a 85       	ldd	r25, Y+10	; 0x0a
     e2c:	0e 94 26 0e 	call	0x1c4c	; 0x1c4c <__fixunssfsi>
     e30:	dc 01       	movw	r26, r24
     e32:	cb 01       	movw	r24, r22
     e34:	9e 83       	std	Y+6, r25	; 0x06
     e36:	8d 83       	std	Y+5, r24	; 0x05
     e38:	8d 81       	ldd	r24, Y+5	; 0x05
     e3a:	9e 81       	ldd	r25, Y+6	; 0x06
     e3c:	9a 83       	std	Y+2, r25	; 0x02
     e3e:	89 83       	std	Y+1, r24	; 0x01
     e40:	89 81       	ldd	r24, Y+1	; 0x01
     e42:	9a 81       	ldd	r25, Y+2	; 0x02
     e44:	01 97       	sbiw	r24, 0x01	; 1
     e46:	f1 f7       	brne	.-4      	; 0xe44 <lcd_wr_command+0x28c>
     e48:	9a 83       	std	Y+2, r25	; 0x02
     e4a:	89 83       	std	Y+1, r24	; 0x01
	_delay_ms(5);
	cbit(lcd_port,EN);
     e4c:	a5 e3       	ldi	r26, 0x35	; 53
     e4e:	b0 e0       	ldi	r27, 0x00	; 0
     e50:	e5 e3       	ldi	r30, 0x35	; 53
     e52:	f0 e0       	ldi	r31, 0x00	; 0
     e54:	80 81       	ld	r24, Z
     e56:	8b 7f       	andi	r24, 0xFB	; 251
     e58:	8c 93       	st	X, r24
}
     e5a:	6e 96       	adiw	r28, 0x1e	; 30
     e5c:	0f b6       	in	r0, 0x3f	; 63
     e5e:	f8 94       	cli
     e60:	de bf       	out	0x3e, r29	; 62
     e62:	0f be       	out	0x3f, r0	; 63
     e64:	cd bf       	out	0x3d, r28	; 61
     e66:	cf 91       	pop	r28
     e68:	df 91       	pop	r29
     e6a:	08 95       	ret

00000e6c <lcd_wr_char>:

//Function to write data on LCD
void lcd_wr_char(char letter)
{
     e6c:	df 93       	push	r29
     e6e:	cf 93       	push	r28
     e70:	cd b7       	in	r28, 0x3d	; 61
     e72:	de b7       	in	r29, 0x3e	; 62
     e74:	6e 97       	sbiw	r28, 0x1e	; 30
     e76:	0f b6       	in	r0, 0x3f	; 63
     e78:	f8 94       	cli
     e7a:	de bf       	out	0x3e, r29	; 62
     e7c:	0f be       	out	0x3f, r0	; 63
     e7e:	cd bf       	out	0x3d, r28	; 61
     e80:	8e 8f       	std	Y+30, r24	; 0x1e
	char temp;
	temp = letter;
     e82:	8e 8d       	ldd	r24, Y+30	; 0x1e
     e84:	8d 8f       	std	Y+29, r24	; 0x1d
	temp = (temp & 0xF0);
     e86:	8d 8d       	ldd	r24, Y+29	; 0x1d
     e88:	80 7f       	andi	r24, 0xF0	; 240
     e8a:	8d 8f       	std	Y+29, r24	; 0x1d
	lcd_port &= 0x0F;
     e8c:	a5 e3       	ldi	r26, 0x35	; 53
     e8e:	b0 e0       	ldi	r27, 0x00	; 0
     e90:	e5 e3       	ldi	r30, 0x35	; 53
     e92:	f0 e0       	ldi	r31, 0x00	; 0
     e94:	80 81       	ld	r24, Z
     e96:	8f 70       	andi	r24, 0x0F	; 15
     e98:	8c 93       	st	X, r24
	lcd_port |= temp;
     e9a:	a5 e3       	ldi	r26, 0x35	; 53
     e9c:	b0 e0       	ldi	r27, 0x00	; 0
     e9e:	e5 e3       	ldi	r30, 0x35	; 53
     ea0:	f0 e0       	ldi	r31, 0x00	; 0
     ea2:	90 81       	ld	r25, Z
     ea4:	8d 8d       	ldd	r24, Y+29	; 0x1d
     ea6:	89 2b       	or	r24, r25
     ea8:	8c 93       	st	X, r24
	sbit(lcd_port,RS);
     eaa:	a5 e3       	ldi	r26, 0x35	; 53
     eac:	b0 e0       	ldi	r27, 0x00	; 0
     eae:	e5 e3       	ldi	r30, 0x35	; 53
     eb0:	f0 e0       	ldi	r31, 0x00	; 0
     eb2:	80 81       	ld	r24, Z
     eb4:	81 60       	ori	r24, 0x01	; 1
     eb6:	8c 93       	st	X, r24
	cbit(lcd_port,RW);
     eb8:	a5 e3       	ldi	r26, 0x35	; 53
     eba:	b0 e0       	ldi	r27, 0x00	; 0
     ebc:	e5 e3       	ldi	r30, 0x35	; 53
     ebe:	f0 e0       	ldi	r31, 0x00	; 0
     ec0:	80 81       	ld	r24, Z
     ec2:	8d 7f       	andi	r24, 0xFD	; 253
     ec4:	8c 93       	st	X, r24
	sbit(lcd_port,EN);
     ec6:	a5 e3       	ldi	r26, 0x35	; 53
     ec8:	b0 e0       	ldi	r27, 0x00	; 0
     eca:	e5 e3       	ldi	r30, 0x35	; 53
     ecc:	f0 e0       	ldi	r31, 0x00	; 0
     ece:	80 81       	ld	r24, Z
     ed0:	84 60       	ori	r24, 0x04	; 4
     ed2:	8c 93       	st	X, r24
     ed4:	80 e0       	ldi	r24, 0x00	; 0
     ed6:	90 e0       	ldi	r25, 0x00	; 0
     ed8:	a0 ea       	ldi	r26, 0xA0	; 160
     eda:	b0 e4       	ldi	r27, 0x40	; 64
     edc:	89 8f       	std	Y+25, r24	; 0x19
     ede:	9a 8f       	std	Y+26, r25	; 0x1a
     ee0:	ab 8f       	std	Y+27, r26	; 0x1b
     ee2:	bc 8f       	std	Y+28, r27	; 0x1c
 */
void
_delay_ms(double __ms)
{
	uint16_t __ticks;
	double __tmp = ((F_CPU) / 4e3) * __ms;
     ee4:	69 8d       	ldd	r22, Y+25	; 0x19
     ee6:	7a 8d       	ldd	r23, Y+26	; 0x1a
     ee8:	8b 8d       	ldd	r24, Y+27	; 0x1b
     eea:	9c 8d       	ldd	r25, Y+28	; 0x1c
     eec:	26 e6       	ldi	r18, 0x66	; 102
     eee:	36 e6       	ldi	r19, 0x66	; 102
     ef0:	46 ee       	ldi	r20, 0xE6	; 230
     ef2:	54 e4       	ldi	r21, 0x44	; 68
     ef4:	0e 94 fc 0f 	call	0x1ff8	; 0x1ff8 <__mulsf3>
     ef8:	dc 01       	movw	r26, r24
     efa:	cb 01       	movw	r24, r22
     efc:	8d 8b       	std	Y+21, r24	; 0x15
     efe:	9e 8b       	std	Y+22, r25	; 0x16
     f00:	af 8b       	std	Y+23, r26	; 0x17
     f02:	b8 8f       	std	Y+24, r27	; 0x18
	if (__tmp < 1.0)
     f04:	6d 89       	ldd	r22, Y+21	; 0x15
     f06:	7e 89       	ldd	r23, Y+22	; 0x16
     f08:	8f 89       	ldd	r24, Y+23	; 0x17
     f0a:	98 8d       	ldd	r25, Y+24	; 0x18
     f0c:	20 e0       	ldi	r18, 0x00	; 0
     f0e:	30 e0       	ldi	r19, 0x00	; 0
     f10:	40 e8       	ldi	r20, 0x80	; 128
     f12:	5f e3       	ldi	r21, 0x3F	; 63
     f14:	0e 94 56 11 	call	0x22ac	; 0x22ac <__ltsf2>
     f18:	88 23       	and	r24, r24
     f1a:	2c f4       	brge	.+10     	; 0xf26 <lcd_wr_char+0xba>
		__ticks = 1;
     f1c:	81 e0       	ldi	r24, 0x01	; 1
     f1e:	90 e0       	ldi	r25, 0x00	; 0
     f20:	9c 8b       	std	Y+20, r25	; 0x14
     f22:	8b 8b       	std	Y+19, r24	; 0x13
     f24:	3f c0       	rjmp	.+126    	; 0xfa4 <lcd_wr_char+0x138>
	else if (__tmp > 65535)
     f26:	6d 89       	ldd	r22, Y+21	; 0x15
     f28:	7e 89       	ldd	r23, Y+22	; 0x16
     f2a:	8f 89       	ldd	r24, Y+23	; 0x17
     f2c:	98 8d       	ldd	r25, Y+24	; 0x18
     f2e:	20 e0       	ldi	r18, 0x00	; 0
     f30:	3f ef       	ldi	r19, 0xFF	; 255
     f32:	4f e7       	ldi	r20, 0x7F	; 127
     f34:	57 e4       	ldi	r21, 0x47	; 71
     f36:	0e 94 f6 10 	call	0x21ec	; 0x21ec <__gtsf2>
     f3a:	18 16       	cp	r1, r24
     f3c:	4c f5       	brge	.+82     	; 0xf90 <lcd_wr_char+0x124>
	{
		//	__ticks = requested delay in 1/10 ms
		__ticks = (uint16_t) (__ms * 10.0);
     f3e:	69 8d       	ldd	r22, Y+25	; 0x19
     f40:	7a 8d       	ldd	r23, Y+26	; 0x1a
     f42:	8b 8d       	ldd	r24, Y+27	; 0x1b
     f44:	9c 8d       	ldd	r25, Y+28	; 0x1c
     f46:	20 e0       	ldi	r18, 0x00	; 0
     f48:	30 e0       	ldi	r19, 0x00	; 0
     f4a:	40 e2       	ldi	r20, 0x20	; 32
     f4c:	51 e4       	ldi	r21, 0x41	; 65
     f4e:	0e 94 fc 0f 	call	0x1ff8	; 0x1ff8 <__mulsf3>
     f52:	dc 01       	movw	r26, r24
     f54:	cb 01       	movw	r24, r22
     f56:	bc 01       	movw	r22, r24
     f58:	cd 01       	movw	r24, r26
     f5a:	0e 94 26 0e 	call	0x1c4c	; 0x1c4c <__fixunssfsi>
     f5e:	dc 01       	movw	r26, r24
     f60:	cb 01       	movw	r24, r22
     f62:	9c 8b       	std	Y+20, r25	; 0x14
     f64:	8b 8b       	std	Y+19, r24	; 0x13
     f66:	0f c0       	rjmp	.+30     	; 0xf86 <lcd_wr_char+0x11a>
     f68:	88 eb       	ldi	r24, 0xB8	; 184
     f6a:	90 e0       	ldi	r25, 0x00	; 0
     f6c:	9a 8b       	std	Y+18, r25	; 0x12
     f6e:	89 8b       	std	Y+17, r24	; 0x11
     f70:	89 89       	ldd	r24, Y+17	; 0x11
     f72:	9a 89       	ldd	r25, Y+18	; 0x12
     f74:	01 97       	sbiw	r24, 0x01	; 1
     f76:	f1 f7       	brne	.-4      	; 0xf74 <lcd_wr_char+0x108>
     f78:	9a 8b       	std	Y+18, r25	; 0x12
     f7a:	89 8b       	std	Y+17, r24	; 0x11
		while(__ticks)
		{
			// wait 1/10 ms
			_delay_loop_2(((F_CPU) / 4e3) / 10);
			__ticks --;
     f7c:	8b 89       	ldd	r24, Y+19	; 0x13
     f7e:	9c 89       	ldd	r25, Y+20	; 0x14
     f80:	01 97       	sbiw	r24, 0x01	; 1
     f82:	9c 8b       	std	Y+20, r25	; 0x14
     f84:	8b 8b       	std	Y+19, r24	; 0x13
		__ticks = 1;
	else if (__tmp > 65535)
	{
		//	__ticks = requested delay in 1/10 ms
		__ticks = (uint16_t) (__ms * 10.0);
		while(__ticks)
     f86:	8b 89       	ldd	r24, Y+19	; 0x13
     f88:	9c 89       	ldd	r25, Y+20	; 0x14
     f8a:	00 97       	sbiw	r24, 0x00	; 0
     f8c:	69 f7       	brne	.-38     	; 0xf68 <lcd_wr_char+0xfc>
     f8e:	14 c0       	rjmp	.+40     	; 0xfb8 <lcd_wr_char+0x14c>
			__ticks --;
		}
		return;
	}
	else
		__ticks = (uint16_t)__tmp;
     f90:	6d 89       	ldd	r22, Y+21	; 0x15
     f92:	7e 89       	ldd	r23, Y+22	; 0x16
     f94:	8f 89       	ldd	r24, Y+23	; 0x17
     f96:	98 8d       	ldd	r25, Y+24	; 0x18
     f98:	0e 94 26 0e 	call	0x1c4c	; 0x1c4c <__fixunssfsi>
     f9c:	dc 01       	movw	r26, r24
     f9e:	cb 01       	movw	r24, r22
     fa0:	9c 8b       	std	Y+20, r25	; 0x14
     fa2:	8b 8b       	std	Y+19, r24	; 0x13
     fa4:	8b 89       	ldd	r24, Y+19	; 0x13
     fa6:	9c 89       	ldd	r25, Y+20	; 0x14
     fa8:	98 8b       	std	Y+16, r25	; 0x10
     faa:	8f 87       	std	Y+15, r24	; 0x0f
     fac:	8f 85       	ldd	r24, Y+15	; 0x0f
     fae:	98 89       	ldd	r25, Y+16	; 0x10
     fb0:	01 97       	sbiw	r24, 0x01	; 1
     fb2:	f1 f7       	brne	.-4      	; 0xfb0 <lcd_wr_char+0x144>
     fb4:	98 8b       	std	Y+16, r25	; 0x10
     fb6:	8f 87       	std	Y+15, r24	; 0x0f
	_delay_ms(5);
	cbit(lcd_port,EN);
     fb8:	a5 e3       	ldi	r26, 0x35	; 53
     fba:	b0 e0       	ldi	r27, 0x00	; 0
     fbc:	e5 e3       	ldi	r30, 0x35	; 53
     fbe:	f0 e0       	ldi	r31, 0x00	; 0
     fc0:	80 81       	ld	r24, Z
     fc2:	8b 7f       	andi	r24, 0xFB	; 251
     fc4:	8c 93       	st	X, r24

	letter = letter & 0x0F;
     fc6:	8e 8d       	ldd	r24, Y+30	; 0x1e
     fc8:	8f 70       	andi	r24, 0x0F	; 15
     fca:	8e 8f       	std	Y+30, r24	; 0x1e
	letter = letter<<4;
     fcc:	8e 8d       	ldd	r24, Y+30	; 0x1e
     fce:	82 95       	swap	r24
     fd0:	80 7f       	andi	r24, 0xF0	; 240
     fd2:	8e 8f       	std	Y+30, r24	; 0x1e
	lcd_port &= 0x0F;
     fd4:	a5 e3       	ldi	r26, 0x35	; 53
     fd6:	b0 e0       	ldi	r27, 0x00	; 0
     fd8:	e5 e3       	ldi	r30, 0x35	; 53
     fda:	f0 e0       	ldi	r31, 0x00	; 0
     fdc:	80 81       	ld	r24, Z
     fde:	8f 70       	andi	r24, 0x0F	; 15
     fe0:	8c 93       	st	X, r24
	lcd_port |= letter;
     fe2:	a5 e3       	ldi	r26, 0x35	; 53
     fe4:	b0 e0       	ldi	r27, 0x00	; 0
     fe6:	e5 e3       	ldi	r30, 0x35	; 53
     fe8:	f0 e0       	ldi	r31, 0x00	; 0
     fea:	90 81       	ld	r25, Z
     fec:	8e 8d       	ldd	r24, Y+30	; 0x1e
     fee:	89 2b       	or	r24, r25
     ff0:	8c 93       	st	X, r24
	sbit(lcd_port,RS);
     ff2:	a5 e3       	ldi	r26, 0x35	; 53
     ff4:	b0 e0       	ldi	r27, 0x00	; 0
     ff6:	e5 e3       	ldi	r30, 0x35	; 53
     ff8:	f0 e0       	ldi	r31, 0x00	; 0
     ffa:	80 81       	ld	r24, Z
     ffc:	81 60       	ori	r24, 0x01	; 1
     ffe:	8c 93       	st	X, r24
	cbit(lcd_port,RW);
    1000:	a5 e3       	ldi	r26, 0x35	; 53
    1002:	b0 e0       	ldi	r27, 0x00	; 0
    1004:	e5 e3       	ldi	r30, 0x35	; 53
    1006:	f0 e0       	ldi	r31, 0x00	; 0
    1008:	80 81       	ld	r24, Z
    100a:	8d 7f       	andi	r24, 0xFD	; 253
    100c:	8c 93       	st	X, r24
	sbit(lcd_port,EN);
    100e:	a5 e3       	ldi	r26, 0x35	; 53
    1010:	b0 e0       	ldi	r27, 0x00	; 0
    1012:	e5 e3       	ldi	r30, 0x35	; 53
    1014:	f0 e0       	ldi	r31, 0x00	; 0
    1016:	80 81       	ld	r24, Z
    1018:	84 60       	ori	r24, 0x04	; 4
    101a:	8c 93       	st	X, r24
    101c:	80 e0       	ldi	r24, 0x00	; 0
    101e:	90 e0       	ldi	r25, 0x00	; 0
    1020:	a0 ea       	ldi	r26, 0xA0	; 160
    1022:	b0 e4       	ldi	r27, 0x40	; 64
    1024:	8b 87       	std	Y+11, r24	; 0x0b
    1026:	9c 87       	std	Y+12, r25	; 0x0c
    1028:	ad 87       	std	Y+13, r26	; 0x0d
    102a:	be 87       	std	Y+14, r27	; 0x0e
 */
void
_delay_ms(double __ms)
{
	uint16_t __ticks;
	double __tmp = ((F_CPU) / 4e3) * __ms;
    102c:	6b 85       	ldd	r22, Y+11	; 0x0b
    102e:	7c 85       	ldd	r23, Y+12	; 0x0c
    1030:	8d 85       	ldd	r24, Y+13	; 0x0d
    1032:	9e 85       	ldd	r25, Y+14	; 0x0e
    1034:	26 e6       	ldi	r18, 0x66	; 102
    1036:	36 e6       	ldi	r19, 0x66	; 102
    1038:	46 ee       	ldi	r20, 0xE6	; 230
    103a:	54 e4       	ldi	r21, 0x44	; 68
    103c:	0e 94 fc 0f 	call	0x1ff8	; 0x1ff8 <__mulsf3>
    1040:	dc 01       	movw	r26, r24
    1042:	cb 01       	movw	r24, r22
    1044:	8f 83       	std	Y+7, r24	; 0x07
    1046:	98 87       	std	Y+8, r25	; 0x08
    1048:	a9 87       	std	Y+9, r26	; 0x09
    104a:	ba 87       	std	Y+10, r27	; 0x0a
	if (__tmp < 1.0)
    104c:	6f 81       	ldd	r22, Y+7	; 0x07
    104e:	78 85       	ldd	r23, Y+8	; 0x08
    1050:	89 85       	ldd	r24, Y+9	; 0x09
    1052:	9a 85       	ldd	r25, Y+10	; 0x0a
    1054:	20 e0       	ldi	r18, 0x00	; 0
    1056:	30 e0       	ldi	r19, 0x00	; 0
    1058:	40 e8       	ldi	r20, 0x80	; 128
    105a:	5f e3       	ldi	r21, 0x3F	; 63
    105c:	0e 94 56 11 	call	0x22ac	; 0x22ac <__ltsf2>
    1060:	88 23       	and	r24, r24
    1062:	2c f4       	brge	.+10     	; 0x106e <lcd_wr_char+0x202>
		__ticks = 1;
    1064:	81 e0       	ldi	r24, 0x01	; 1
    1066:	90 e0       	ldi	r25, 0x00	; 0
    1068:	9e 83       	std	Y+6, r25	; 0x06
    106a:	8d 83       	std	Y+5, r24	; 0x05
    106c:	3f c0       	rjmp	.+126    	; 0x10ec <lcd_wr_char+0x280>
	else if (__tmp > 65535)
    106e:	6f 81       	ldd	r22, Y+7	; 0x07
    1070:	78 85       	ldd	r23, Y+8	; 0x08
    1072:	89 85       	ldd	r24, Y+9	; 0x09
    1074:	9a 85       	ldd	r25, Y+10	; 0x0a
    1076:	20 e0       	ldi	r18, 0x00	; 0
    1078:	3f ef       	ldi	r19, 0xFF	; 255
    107a:	4f e7       	ldi	r20, 0x7F	; 127
    107c:	57 e4       	ldi	r21, 0x47	; 71
    107e:	0e 94 f6 10 	call	0x21ec	; 0x21ec <__gtsf2>
    1082:	18 16       	cp	r1, r24
    1084:	4c f5       	brge	.+82     	; 0x10d8 <lcd_wr_char+0x26c>
	{
		//	__ticks = requested delay in 1/10 ms
		__ticks = (uint16_t) (__ms * 10.0);
    1086:	6b 85       	ldd	r22, Y+11	; 0x0b
    1088:	7c 85       	ldd	r23, Y+12	; 0x0c
    108a:	8d 85       	ldd	r24, Y+13	; 0x0d
    108c:	9e 85       	ldd	r25, Y+14	; 0x0e
    108e:	20 e0       	ldi	r18, 0x00	; 0
    1090:	30 e0       	ldi	r19, 0x00	; 0
    1092:	40 e2       	ldi	r20, 0x20	; 32
    1094:	51 e4       	ldi	r21, 0x41	; 65
    1096:	0e 94 fc 0f 	call	0x1ff8	; 0x1ff8 <__mulsf3>
    109a:	dc 01       	movw	r26, r24
    109c:	cb 01       	movw	r24, r22
    109e:	bc 01       	movw	r22, r24
    10a0:	cd 01       	movw	r24, r26
    10a2:	0e 94 26 0e 	call	0x1c4c	; 0x1c4c <__fixunssfsi>
    10a6:	dc 01       	movw	r26, r24
    10a8:	cb 01       	movw	r24, r22
    10aa:	9e 83       	std	Y+6, r25	; 0x06
    10ac:	8d 83       	std	Y+5, r24	; 0x05
    10ae:	0f c0       	rjmp	.+30     	; 0x10ce <lcd_wr_char+0x262>
    10b0:	88 eb       	ldi	r24, 0xB8	; 184
    10b2:	90 e0       	ldi	r25, 0x00	; 0
    10b4:	9c 83       	std	Y+4, r25	; 0x04
    10b6:	8b 83       	std	Y+3, r24	; 0x03
    10b8:	8b 81       	ldd	r24, Y+3	; 0x03
    10ba:	9c 81       	ldd	r25, Y+4	; 0x04
    10bc:	01 97       	sbiw	r24, 0x01	; 1
    10be:	f1 f7       	brne	.-4      	; 0x10bc <lcd_wr_char+0x250>
    10c0:	9c 83       	std	Y+4, r25	; 0x04
    10c2:	8b 83       	std	Y+3, r24	; 0x03
		while(__ticks)
		{
			// wait 1/10 ms
			_delay_loop_2(((F_CPU) / 4e3) / 10);
			__ticks --;
    10c4:	8d 81       	ldd	r24, Y+5	; 0x05
    10c6:	9e 81       	ldd	r25, Y+6	; 0x06
    10c8:	01 97       	sbiw	r24, 0x01	; 1
    10ca:	9e 83       	std	Y+6, r25	; 0x06
    10cc:	8d 83       	std	Y+5, r24	; 0x05
		__ticks = 1;
	else if (__tmp > 65535)
	{
		//	__ticks = requested delay in 1/10 ms
		__ticks = (uint16_t) (__ms * 10.0);
		while(__ticks)
    10ce:	8d 81       	ldd	r24, Y+5	; 0x05
    10d0:	9e 81       	ldd	r25, Y+6	; 0x06
    10d2:	00 97       	sbiw	r24, 0x00	; 0
    10d4:	69 f7       	brne	.-38     	; 0x10b0 <lcd_wr_char+0x244>
    10d6:	14 c0       	rjmp	.+40     	; 0x1100 <lcd_wr_char+0x294>
			__ticks --;
		}
		return;
	}
	else
		__ticks = (uint16_t)__tmp;
    10d8:	6f 81       	ldd	r22, Y+7	; 0x07
    10da:	78 85       	ldd	r23, Y+8	; 0x08
    10dc:	89 85       	ldd	r24, Y+9	; 0x09
    10de:	9a 85       	ldd	r25, Y+10	; 0x0a
    10e0:	0e 94 26 0e 	call	0x1c4c	; 0x1c4c <__fixunssfsi>
    10e4:	dc 01       	movw	r26, r24
    10e6:	cb 01       	movw	r24, r22
    10e8:	9e 83       	std	Y+6, r25	; 0x06
    10ea:	8d 83       	std	Y+5, r24	; 0x05
    10ec:	8d 81       	ldd	r24, Y+5	; 0x05
    10ee:	9e 81       	ldd	r25, Y+6	; 0x06
    10f0:	9a 83       	std	Y+2, r25	; 0x02
    10f2:	89 83       	std	Y+1, r24	; 0x01
    10f4:	89 81       	ldd	r24, Y+1	; 0x01
    10f6:	9a 81       	ldd	r25, Y+2	; 0x02
    10f8:	01 97       	sbiw	r24, 0x01	; 1
    10fa:	f1 f7       	brne	.-4      	; 0x10f8 <lcd_wr_char+0x28c>
    10fc:	9a 83       	std	Y+2, r25	; 0x02
    10fe:	89 83       	std	Y+1, r24	; 0x01
	_delay_ms(5);
	cbit(lcd_port,EN);
    1100:	a5 e3       	ldi	r26, 0x35	; 53
    1102:	b0 e0       	ldi	r27, 0x00	; 0
    1104:	e5 e3       	ldi	r30, 0x35	; 53
    1106:	f0 e0       	ldi	r31, 0x00	; 0
    1108:	80 81       	ld	r24, Z
    110a:	8b 7f       	andi	r24, 0xFB	; 251
    110c:	8c 93       	st	X, r24
}
    110e:	6e 96       	adiw	r28, 0x1e	; 30
    1110:	0f b6       	in	r0, 0x3f	; 63
    1112:	f8 94       	cli
    1114:	de bf       	out	0x3e, r29	; 62
    1116:	0f be       	out	0x3f, r0	; 63
    1118:	cd bf       	out	0x3d, r28	; 61
    111a:	cf 91       	pop	r28
    111c:	df 91       	pop	r29
    111e:	08 95       	ret

00001120 <lcd_home>:


void lcd_home()
{
    1120:	df 93       	push	r29
    1122:	cf 93       	push	r28
    1124:	cd b7       	in	r28, 0x3d	; 61
    1126:	de b7       	in	r29, 0x3e	; 62
	lcd_wr_command(0x80);
    1128:	80 e8       	ldi	r24, 0x80	; 128
    112a:	0e 94 dc 05 	call	0xbb8	; 0xbb8 <lcd_wr_command>
}
    112e:	cf 91       	pop	r28
    1130:	df 91       	pop	r29
    1132:	08 95       	ret

00001134 <lcd_string>:


//Function to Print String on LCD
void lcd_string(char *str)
{
    1134:	df 93       	push	r29
    1136:	cf 93       	push	r28
    1138:	00 d0       	rcall	.+0      	; 0x113a <lcd_string+0x6>
    113a:	cd b7       	in	r28, 0x3d	; 61
    113c:	de b7       	in	r29, 0x3e	; 62
    113e:	9a 83       	std	Y+2, r25	; 0x02
    1140:	89 83       	std	Y+1, r24	; 0x01
    1142:	0a c0       	rjmp	.+20     	; 0x1158 <lcd_string+0x24>
	while(*str != '\0')
	{
		lcd_wr_char(*str);
    1144:	e9 81       	ldd	r30, Y+1	; 0x01
    1146:	fa 81       	ldd	r31, Y+2	; 0x02
    1148:	80 81       	ld	r24, Z
    114a:	0e 94 36 07 	call	0xe6c	; 0xe6c <lcd_wr_char>
		str++;
    114e:	89 81       	ldd	r24, Y+1	; 0x01
    1150:	9a 81       	ldd	r25, Y+2	; 0x02
    1152:	01 96       	adiw	r24, 0x01	; 1
    1154:	9a 83       	std	Y+2, r25	; 0x02
    1156:	89 83       	std	Y+1, r24	; 0x01


//Function to Print String on LCD
void lcd_string(char *str)
{
	while(*str != '\0')
    1158:	e9 81       	ldd	r30, Y+1	; 0x01
    115a:	fa 81       	ldd	r31, Y+2	; 0x02
    115c:	80 81       	ld	r24, Z
    115e:	88 23       	and	r24, r24
    1160:	89 f7       	brne	.-30     	; 0x1144 <lcd_string+0x10>
	{
		lcd_wr_char(*str);
		str++;
	}
}
    1162:	0f 90       	pop	r0
    1164:	0f 90       	pop	r0
    1166:	cf 91       	pop	r28
    1168:	df 91       	pop	r29
    116a:	08 95       	ret

0000116c <lcd_cursor>:

//Position the LCD cursor at "row", "column"

void lcd_cursor (char row, char column)
{
    116c:	df 93       	push	r29
    116e:	cf 93       	push	r28
    1170:	00 d0       	rcall	.+0      	; 0x1172 <lcd_cursor+0x6>
    1172:	00 d0       	rcall	.+0      	; 0x1174 <lcd_cursor+0x8>
    1174:	cd b7       	in	r28, 0x3d	; 61
    1176:	de b7       	in	r29, 0x3e	; 62
    1178:	89 83       	std	Y+1, r24	; 0x01
    117a:	6a 83       	std	Y+2, r22	; 0x02
	switch (row) {
    117c:	89 81       	ldd	r24, Y+1	; 0x01
    117e:	28 2f       	mov	r18, r24
    1180:	30 e0       	ldi	r19, 0x00	; 0
    1182:	3c 83       	std	Y+4, r19	; 0x04
    1184:	2b 83       	std	Y+3, r18	; 0x03
    1186:	8b 81       	ldd	r24, Y+3	; 0x03
    1188:	9c 81       	ldd	r25, Y+4	; 0x04
    118a:	82 30       	cpi	r24, 0x02	; 2
    118c:	91 05       	cpc	r25, r1
    118e:	d9 f0       	breq	.+54     	; 0x11c6 <lcd_cursor+0x5a>
    1190:	2b 81       	ldd	r18, Y+3	; 0x03
    1192:	3c 81       	ldd	r19, Y+4	; 0x04
    1194:	23 30       	cpi	r18, 0x03	; 3
    1196:	31 05       	cpc	r19, r1
    1198:	34 f4       	brge	.+12     	; 0x11a6 <lcd_cursor+0x3a>
    119a:	8b 81       	ldd	r24, Y+3	; 0x03
    119c:	9c 81       	ldd	r25, Y+4	; 0x04
    119e:	81 30       	cpi	r24, 0x01	; 1
    11a0:	91 05       	cpc	r25, r1
    11a2:	61 f0       	breq	.+24     	; 0x11bc <lcd_cursor+0x50>
    11a4:	1e c0       	rjmp	.+60     	; 0x11e2 <lcd_cursor+0x76>
    11a6:	2b 81       	ldd	r18, Y+3	; 0x03
    11a8:	3c 81       	ldd	r19, Y+4	; 0x04
    11aa:	23 30       	cpi	r18, 0x03	; 3
    11ac:	31 05       	cpc	r19, r1
    11ae:	81 f0       	breq	.+32     	; 0x11d0 <lcd_cursor+0x64>
    11b0:	8b 81       	ldd	r24, Y+3	; 0x03
    11b2:	9c 81       	ldd	r25, Y+4	; 0x04
    11b4:	84 30       	cpi	r24, 0x04	; 4
    11b6:	91 05       	cpc	r25, r1
    11b8:	81 f0       	breq	.+32     	; 0x11da <lcd_cursor+0x6e>
    11ba:	13 c0       	rjmp	.+38     	; 0x11e2 <lcd_cursor+0x76>
		case 1: lcd_wr_command (0x80 + column - 1); break;
    11bc:	8a 81       	ldd	r24, Y+2	; 0x02
    11be:	81 58       	subi	r24, 0x81	; 129
    11c0:	0e 94 dc 05 	call	0xbb8	; 0xbb8 <lcd_wr_command>
    11c4:	0e c0       	rjmp	.+28     	; 0x11e2 <lcd_cursor+0x76>
		case 2: lcd_wr_command (0xc0 + column - 1); break;
    11c6:	8a 81       	ldd	r24, Y+2	; 0x02
    11c8:	81 54       	subi	r24, 0x41	; 65
    11ca:	0e 94 dc 05 	call	0xbb8	; 0xbb8 <lcd_wr_command>
    11ce:	09 c0       	rjmp	.+18     	; 0x11e2 <lcd_cursor+0x76>
		case 3: lcd_wr_command (0x94 + column - 1); break;
    11d0:	8a 81       	ldd	r24, Y+2	; 0x02
    11d2:	8d 56       	subi	r24, 0x6D	; 109
    11d4:	0e 94 dc 05 	call	0xbb8	; 0xbb8 <lcd_wr_command>
    11d8:	04 c0       	rjmp	.+8      	; 0x11e2 <lcd_cursor+0x76>
		case 4: lcd_wr_command (0xd4 + column - 1); break;
    11da:	8a 81       	ldd	r24, Y+2	; 0x02
    11dc:	8d 52       	subi	r24, 0x2D	; 45
    11de:	0e 94 dc 05 	call	0xbb8	; 0xbb8 <lcd_wr_command>
		default: break;
	}
}
    11e2:	0f 90       	pop	r0
    11e4:	0f 90       	pop	r0
    11e6:	0f 90       	pop	r0
    11e8:	0f 90       	pop	r0
    11ea:	cf 91       	pop	r28
    11ec:	df 91       	pop	r29
    11ee:	08 95       	ret

000011f0 <lcd_print>:

//Function to print any input value up to the desired digit on LCD
void lcd_print (char row, char coloumn, unsigned int value, int digits)
{
    11f0:	df 93       	push	r29
    11f2:	cf 93       	push	r28
    11f4:	cd b7       	in	r28, 0x3d	; 61
    11f6:	de b7       	in	r29, 0x3e	; 62
    11f8:	27 97       	sbiw	r28, 0x07	; 7
    11fa:	0f b6       	in	r0, 0x3f	; 63
    11fc:	f8 94       	cli
    11fe:	de bf       	out	0x3e, r29	; 62
    1200:	0f be       	out	0x3f, r0	; 63
    1202:	cd bf       	out	0x3d, r28	; 61
    1204:	8a 83       	std	Y+2, r24	; 0x02
    1206:	6b 83       	std	Y+3, r22	; 0x03
    1208:	5d 83       	std	Y+5, r21	; 0x05
    120a:	4c 83       	std	Y+4, r20	; 0x04
    120c:	3f 83       	std	Y+7, r19	; 0x07
    120e:	2e 83       	std	Y+6, r18	; 0x06
	unsigned char flag=0;
    1210:	19 82       	std	Y+1, r1	; 0x01
	if(row==0||coloumn==0)
    1212:	8a 81       	ldd	r24, Y+2	; 0x02
    1214:	88 23       	and	r24, r24
    1216:	19 f0       	breq	.+6      	; 0x121e <lcd_print+0x2e>
    1218:	8b 81       	ldd	r24, Y+3	; 0x03
    121a:	88 23       	and	r24, r24
    121c:	19 f4       	brne	.+6      	; 0x1224 <lcd_print+0x34>
	{
		lcd_home();
    121e:	0e 94 90 08 	call	0x1120	; 0x1120 <lcd_home>
    1222:	04 c0       	rjmp	.+8      	; 0x122c <lcd_print+0x3c>
	}
	else
	{
		lcd_cursor(row,coloumn);
    1224:	8a 81       	ldd	r24, Y+2	; 0x02
    1226:	6b 81       	ldd	r22, Y+3	; 0x03
    1228:	0e 94 b6 08 	call	0x116c	; 0x116c <lcd_cursor>
	}
	if(digits==5 || flag==1)
    122c:	8e 81       	ldd	r24, Y+6	; 0x06
    122e:	9f 81       	ldd	r25, Y+7	; 0x07
    1230:	85 30       	cpi	r24, 0x05	; 5
    1232:	91 05       	cpc	r25, r1
    1234:	19 f0       	breq	.+6      	; 0x123c <lcd_print+0x4c>
    1236:	89 81       	ldd	r24, Y+1	; 0x01
    1238:	81 30       	cpi	r24, 0x01	; 1
    123a:	a9 f4       	brne	.+42     	; 0x1266 <lcd_print+0x76>
	{
		million=value/10000+48;
    123c:	8c 81       	ldd	r24, Y+4	; 0x04
    123e:	9d 81       	ldd	r25, Y+5	; 0x05
    1240:	20 e1       	ldi	r18, 0x10	; 16
    1242:	37 e2       	ldi	r19, 0x27	; 39
    1244:	b9 01       	movw	r22, r18
    1246:	0e 94 80 13 	call	0x2700	; 0x2700 <__udivmodhi4>
    124a:	cb 01       	movw	r24, r22
    124c:	c0 96       	adiw	r24, 0x30	; 48
    124e:	90 93 6d 00 	sts	0x006D, r25
    1252:	80 93 6c 00 	sts	0x006C, r24
		lcd_wr_char(million);
    1256:	80 91 6c 00 	lds	r24, 0x006C
    125a:	90 91 6d 00 	lds	r25, 0x006D
    125e:	0e 94 36 07 	call	0xe6c	; 0xe6c <lcd_wr_char>
		flag=1;
    1262:	81 e0       	ldi	r24, 0x01	; 1
    1264:	89 83       	std	Y+1, r24	; 0x01
	}
	if(digits==4 || flag==1)
    1266:	8e 81       	ldd	r24, Y+6	; 0x06
    1268:	9f 81       	ldd	r25, Y+7	; 0x07
    126a:	84 30       	cpi	r24, 0x04	; 4
    126c:	91 05       	cpc	r25, r1
    126e:	19 f0       	breq	.+6      	; 0x1276 <lcd_print+0x86>
    1270:	89 81       	ldd	r24, Y+1	; 0x01
    1272:	81 30       	cpi	r24, 0x01	; 1
    1274:	11 f5       	brne	.+68     	; 0x12ba <lcd_print+0xca>
	{
		temp = value/1000;
    1276:	8c 81       	ldd	r24, Y+4	; 0x04
    1278:	9d 81       	ldd	r25, Y+5	; 0x05
    127a:	28 ee       	ldi	r18, 0xE8	; 232
    127c:	33 e0       	ldi	r19, 0x03	; 3
    127e:	b9 01       	movw	r22, r18
    1280:	0e 94 80 13 	call	0x2700	; 0x2700 <__udivmodhi4>
    1284:	cb 01       	movw	r24, r22
    1286:	90 93 6f 00 	sts	0x006F, r25
    128a:	80 93 6e 00 	sts	0x006E, r24
		thousand = temp%10 + 48;
    128e:	80 91 6e 00 	lds	r24, 0x006E
    1292:	90 91 6f 00 	lds	r25, 0x006F
    1296:	2a e0       	ldi	r18, 0x0A	; 10
    1298:	30 e0       	ldi	r19, 0x00	; 0
    129a:	b9 01       	movw	r22, r18
    129c:	0e 94 80 13 	call	0x2700	; 0x2700 <__udivmodhi4>
    12a0:	c0 96       	adiw	r24, 0x30	; 48
    12a2:	90 93 7a 00 	sts	0x007A, r25
    12a6:	80 93 79 00 	sts	0x0079, r24
		lcd_wr_char(thousand);
    12aa:	80 91 79 00 	lds	r24, 0x0079
    12ae:	90 91 7a 00 	lds	r25, 0x007A
    12b2:	0e 94 36 07 	call	0xe6c	; 0xe6c <lcd_wr_char>
		flag=1;
    12b6:	81 e0       	ldi	r24, 0x01	; 1
    12b8:	89 83       	std	Y+1, r24	; 0x01
	}
	if(digits==3 || flag==1)
    12ba:	8e 81       	ldd	r24, Y+6	; 0x06
    12bc:	9f 81       	ldd	r25, Y+7	; 0x07
    12be:	83 30       	cpi	r24, 0x03	; 3
    12c0:	91 05       	cpc	r25, r1
    12c2:	19 f0       	breq	.+6      	; 0x12ca <lcd_print+0xda>
    12c4:	89 81       	ldd	r24, Y+1	; 0x01
    12c6:	81 30       	cpi	r24, 0x01	; 1
    12c8:	11 f5       	brne	.+68     	; 0x130e <lcd_print+0x11e>
	{
		temp = value/100;
    12ca:	8c 81       	ldd	r24, Y+4	; 0x04
    12cc:	9d 81       	ldd	r25, Y+5	; 0x05
    12ce:	24 e6       	ldi	r18, 0x64	; 100
    12d0:	30 e0       	ldi	r19, 0x00	; 0
    12d2:	b9 01       	movw	r22, r18
    12d4:	0e 94 80 13 	call	0x2700	; 0x2700 <__udivmodhi4>
    12d8:	cb 01       	movw	r24, r22
    12da:	90 93 6f 00 	sts	0x006F, r25
    12de:	80 93 6e 00 	sts	0x006E, r24
		hundred = temp%10 + 48;
    12e2:	80 91 6e 00 	lds	r24, 0x006E
    12e6:	90 91 6f 00 	lds	r25, 0x006F
    12ea:	2a e0       	ldi	r18, 0x0A	; 10
    12ec:	30 e0       	ldi	r19, 0x00	; 0
    12ee:	b9 01       	movw	r22, r18
    12f0:	0e 94 80 13 	call	0x2700	; 0x2700 <__udivmodhi4>
    12f4:	c0 96       	adiw	r24, 0x30	; 48
    12f6:	90 93 76 00 	sts	0x0076, r25
    12fa:	80 93 75 00 	sts	0x0075, r24
		lcd_wr_char(hundred);
    12fe:	80 91 75 00 	lds	r24, 0x0075
    1302:	90 91 76 00 	lds	r25, 0x0076
    1306:	0e 94 36 07 	call	0xe6c	; 0xe6c <lcd_wr_char>
		flag=1;
    130a:	81 e0       	ldi	r24, 0x01	; 1
    130c:	89 83       	std	Y+1, r24	; 0x01
	}
	if(digits==2 || flag==1)
    130e:	8e 81       	ldd	r24, Y+6	; 0x06
    1310:	9f 81       	ldd	r25, Y+7	; 0x07
    1312:	82 30       	cpi	r24, 0x02	; 2
    1314:	91 05       	cpc	r25, r1
    1316:	19 f0       	breq	.+6      	; 0x131e <lcd_print+0x12e>
    1318:	89 81       	ldd	r24, Y+1	; 0x01
    131a:	81 30       	cpi	r24, 0x01	; 1
    131c:	11 f5       	brne	.+68     	; 0x1362 <lcd_print+0x172>
	{
		temp = value/10;
    131e:	8c 81       	ldd	r24, Y+4	; 0x04
    1320:	9d 81       	ldd	r25, Y+5	; 0x05
    1322:	2a e0       	ldi	r18, 0x0A	; 10
    1324:	30 e0       	ldi	r19, 0x00	; 0
    1326:	b9 01       	movw	r22, r18
    1328:	0e 94 80 13 	call	0x2700	; 0x2700 <__udivmodhi4>
    132c:	cb 01       	movw	r24, r22
    132e:	90 93 6f 00 	sts	0x006F, r25
    1332:	80 93 6e 00 	sts	0x006E, r24
		tens = temp%10 + 48;
    1336:	80 91 6e 00 	lds	r24, 0x006E
    133a:	90 91 6f 00 	lds	r25, 0x006F
    133e:	2a e0       	ldi	r18, 0x0A	; 10
    1340:	30 e0       	ldi	r19, 0x00	; 0
    1342:	b9 01       	movw	r22, r18
    1344:	0e 94 80 13 	call	0x2700	; 0x2700 <__udivmodhi4>
    1348:	c0 96       	adiw	r24, 0x30	; 48
    134a:	90 93 74 00 	sts	0x0074, r25
    134e:	80 93 73 00 	sts	0x0073, r24
		lcd_wr_char(tens);
    1352:	80 91 73 00 	lds	r24, 0x0073
    1356:	90 91 74 00 	lds	r25, 0x0074
    135a:	0e 94 36 07 	call	0xe6c	; 0xe6c <lcd_wr_char>
		flag=1;
    135e:	81 e0       	ldi	r24, 0x01	; 1
    1360:	89 83       	std	Y+1, r24	; 0x01
	}
	if(digits==1 || flag==1)
    1362:	8e 81       	ldd	r24, Y+6	; 0x06
    1364:	9f 81       	ldd	r25, Y+7	; 0x07
    1366:	81 30       	cpi	r24, 0x01	; 1
    1368:	91 05       	cpc	r25, r1
    136a:	19 f0       	breq	.+6      	; 0x1372 <lcd_print+0x182>
    136c:	89 81       	ldd	r24, Y+1	; 0x01
    136e:	81 30       	cpi	r24, 0x01	; 1
    1370:	91 f4       	brne	.+36     	; 0x1396 <lcd_print+0x1a6>
	{
		unit = value%10 + 48;
    1372:	8c 81       	ldd	r24, Y+4	; 0x04
    1374:	9d 81       	ldd	r25, Y+5	; 0x05
    1376:	2a e0       	ldi	r18, 0x0A	; 10
    1378:	30 e0       	ldi	r19, 0x00	; 0
    137a:	b9 01       	movw	r22, r18
    137c:	0e 94 80 13 	call	0x2700	; 0x2700 <__udivmodhi4>
    1380:	c0 96       	adiw	r24, 0x30	; 48
    1382:	90 93 78 00 	sts	0x0078, r25
    1386:	80 93 77 00 	sts	0x0077, r24
		lcd_wr_char(unit);
    138a:	80 91 77 00 	lds	r24, 0x0077
    138e:	90 91 78 00 	lds	r25, 0x0078
    1392:	0e 94 36 07 	call	0xe6c	; 0xe6c <lcd_wr_char>
	}
	if(digits>5)
    1396:	8e 81       	ldd	r24, Y+6	; 0x06
    1398:	9f 81       	ldd	r25, Y+7	; 0x07
    139a:	86 30       	cpi	r24, 0x06	; 6
    139c:	91 05       	cpc	r25, r1
    139e:	1c f0       	brlt	.+6      	; 0x13a6 <lcd_print+0x1b6>
	{
		lcd_wr_char('E');
    13a0:	85 e4       	ldi	r24, 0x45	; 69
    13a2:	0e 94 36 07 	call	0xe6c	; 0xe6c <lcd_wr_char>
	}
}
    13a6:	27 96       	adiw	r28, 0x07	; 7
    13a8:	0f b6       	in	r0, 0x3f	; 63
    13aa:	f8 94       	cli
    13ac:	de bf       	out	0x3e, r29	; 62
    13ae:	0f be       	out	0x3f, r0	; 63
    13b0:	cd bf       	out	0x3d, r28	; 61
    13b2:	cf 91       	pop	r28
    13b4:	df 91       	pop	r29
    13b6:	08 95       	ret

000013b8 <motion_pin_config>:
unsigned char c = 0;
unsigned char r = 0;
unsigned char PortBRestore = 0;

void motion_pin_config (void)
{
    13b8:	df 93       	push	r29
    13ba:	cf 93       	push	r28
    13bc:	cd b7       	in	r28, 0x3d	; 61
    13be:	de b7       	in	r29, 0x3e	; 62
 DDRB = DDRB | 0x0F;   //set direction of the PORTB3 to PORTB0 pins as output
    13c0:	a7 e3       	ldi	r26, 0x37	; 55
    13c2:	b0 e0       	ldi	r27, 0x00	; 0
    13c4:	e7 e3       	ldi	r30, 0x37	; 55
    13c6:	f0 e0       	ldi	r31, 0x00	; 0
    13c8:	80 81       	ld	r24, Z
    13ca:	8f 60       	ori	r24, 0x0F	; 15
    13cc:	8c 93       	st	X, r24
 PORTB = PORTB & 0xF0; // set initial value of the PORTB3 to PORTB0 pins to logic 0
    13ce:	a8 e3       	ldi	r26, 0x38	; 56
    13d0:	b0 e0       	ldi	r27, 0x00	; 0
    13d2:	e8 e3       	ldi	r30, 0x38	; 56
    13d4:	f0 e0       	ldi	r31, 0x00	; 0
    13d6:	80 81       	ld	r24, Z
    13d8:	80 7f       	andi	r24, 0xF0	; 240
    13da:	8c 93       	st	X, r24
 DDRD = DDRD | 0x30;   //Setting PD4 and PD5 pins as output for PWM generation
    13dc:	a1 e3       	ldi	r26, 0x31	; 49
    13de:	b0 e0       	ldi	r27, 0x00	; 0
    13e0:	e1 e3       	ldi	r30, 0x31	; 49
    13e2:	f0 e0       	ldi	r31, 0x00	; 0
    13e4:	80 81       	ld	r24, Z
    13e6:	80 63       	ori	r24, 0x30	; 48
    13e8:	8c 93       	st	X, r24
 PORTD = PORTD | 0x30; //PD4 and PD5 pins are for velocity control using PWM
    13ea:	a2 e3       	ldi	r26, 0x32	; 50
    13ec:	b0 e0       	ldi	r27, 0x00	; 0
    13ee:	e2 e3       	ldi	r30, 0x32	; 50
    13f0:	f0 e0       	ldi	r31, 0x00	; 0
    13f2:	80 81       	ld	r24, Z
    13f4:	80 63       	ori	r24, 0x30	; 48
    13f6:	8c 93       	st	X, r24
}
    13f8:	cf 91       	pop	r28
    13fa:	df 91       	pop	r29
    13fc:	08 95       	ret

000013fe <motion_set>:

//Function used for setting motor's direction
void motion_set (unsigned char Direction)
{
    13fe:	df 93       	push	r29
    1400:	cf 93       	push	r28
    1402:	00 d0       	rcall	.+0      	; 0x1404 <motion_set+0x6>
    1404:	cd b7       	in	r28, 0x3d	; 61
    1406:	de b7       	in	r29, 0x3e	; 62
    1408:	8a 83       	std	Y+2, r24	; 0x02
 unsigned char PortBRestore = 0;
    140a:	19 82       	std	Y+1, r1	; 0x01

 Direction &= 0x0F; 			// removing upper nibbel as it is not needed
    140c:	8a 81       	ldd	r24, Y+2	; 0x02
    140e:	8f 70       	andi	r24, 0x0F	; 15
    1410:	8a 83       	std	Y+2, r24	; 0x02
 PortBRestore = PORTB; 			// reading the PORTB's original status
    1412:	e8 e3       	ldi	r30, 0x38	; 56
    1414:	f0 e0       	ldi	r31, 0x00	; 0
    1416:	80 81       	ld	r24, Z
    1418:	89 83       	std	Y+1, r24	; 0x01
 PortBRestore &= 0xF0; 			// setting lower direction nibbel to 0
    141a:	89 81       	ldd	r24, Y+1	; 0x01
    141c:	80 7f       	andi	r24, 0xF0	; 240
    141e:	89 83       	std	Y+1, r24	; 0x01
 PortBRestore |= Direction; 	// adding lower nibbel for direction command and restoring the PORTB status
    1420:	99 81       	ldd	r25, Y+1	; 0x01
    1422:	8a 81       	ldd	r24, Y+2	; 0x02
    1424:	89 2b       	or	r24, r25
    1426:	89 83       	std	Y+1, r24	; 0x01
 PORTB = PortBRestore; 			// setting the command to the port
    1428:	e8 e3       	ldi	r30, 0x38	; 56
    142a:	f0 e0       	ldi	r31, 0x00	; 0
    142c:	89 81       	ldd	r24, Y+1	; 0x01
    142e:	80 83       	st	Z, r24
}
    1430:	0f 90       	pop	r0
    1432:	0f 90       	pop	r0
    1434:	cf 91       	pop	r28
    1436:	df 91       	pop	r29
    1438:	08 95       	ret

0000143a <forward>:

void forward (void)         //both wheels forward
{
    143a:	df 93       	push	r29
    143c:	cf 93       	push	r28
    143e:	cd b7       	in	r28, 0x3d	; 61
    1440:	de b7       	in	r29, 0x3e	; 62
  motion_set(0x06);
    1442:	86 e0       	ldi	r24, 0x06	; 6
    1444:	0e 94 ff 09 	call	0x13fe	; 0x13fe <motion_set>
}
    1448:	cf 91       	pop	r28
    144a:	df 91       	pop	r29
    144c:	08 95       	ret

0000144e <back>:

void back (void)            //both wheels backward
{
    144e:	df 93       	push	r29
    1450:	cf 93       	push	r28
    1452:	cd b7       	in	r28, 0x3d	; 61
    1454:	de b7       	in	r29, 0x3e	; 62
  motion_set(0x09);
    1456:	89 e0       	ldi	r24, 0x09	; 9
    1458:	0e 94 ff 09 	call	0x13fe	; 0x13fe <motion_set>
}
    145c:	cf 91       	pop	r28
    145e:	df 91       	pop	r29
    1460:	08 95       	ret

00001462 <left>:

void left (void)            //Left wheel backward, Right wheel forward
{
    1462:	df 93       	push	r29
    1464:	cf 93       	push	r28
    1466:	cd b7       	in	r28, 0x3d	; 61
    1468:	de b7       	in	r29, 0x3e	; 62
  motion_set(0x05);
    146a:	85 e0       	ldi	r24, 0x05	; 5
    146c:	0e 94 ff 09 	call	0x13fe	; 0x13fe <motion_set>
}
    1470:	cf 91       	pop	r28
    1472:	df 91       	pop	r29
    1474:	08 95       	ret

00001476 <right>:

void right (void)           //Left wheel forward, Right wheel backward
{   
    1476:	df 93       	push	r29
    1478:	cf 93       	push	r28
    147a:	cd b7       	in	r28, 0x3d	; 61
    147c:	de b7       	in	r29, 0x3e	; 62
  motion_set(0x0A);
    147e:	8a e0       	ldi	r24, 0x0A	; 10
    1480:	0e 94 ff 09 	call	0x13fe	; 0x13fe <motion_set>
}
    1484:	cf 91       	pop	r28
    1486:	df 91       	pop	r29
    1488:	08 95       	ret

0000148a <soft_left>:

void soft_left (void)       //Left wheel stationary, Right wheel forward
{
    148a:	df 93       	push	r29
    148c:	cf 93       	push	r28
    148e:	cd b7       	in	r28, 0x3d	; 61
    1490:	de b7       	in	r29, 0x3e	; 62
 motion_set(0x04);
    1492:	84 e0       	ldi	r24, 0x04	; 4
    1494:	0e 94 ff 09 	call	0x13fe	; 0x13fe <motion_set>
}
    1498:	cf 91       	pop	r28
    149a:	df 91       	pop	r29
    149c:	08 95       	ret

0000149e <soft_right>:

void soft_right (void)      //Left wheel forward, Right wheel is stationary
{ 
    149e:	df 93       	push	r29
    14a0:	cf 93       	push	r28
    14a2:	cd b7       	in	r28, 0x3d	; 61
    14a4:	de b7       	in	r29, 0x3e	; 62
 motion_set(0x02);
    14a6:	82 e0       	ldi	r24, 0x02	; 2
    14a8:	0e 94 ff 09 	call	0x13fe	; 0x13fe <motion_set>
}
    14ac:	cf 91       	pop	r28
    14ae:	df 91       	pop	r29
    14b0:	08 95       	ret

000014b2 <soft_left_2>:

void soft_left_2 (void)     //Left wheel backward, right wheel stationary
{
    14b2:	df 93       	push	r29
    14b4:	cf 93       	push	r28
    14b6:	cd b7       	in	r28, 0x3d	; 61
    14b8:	de b7       	in	r29, 0x3e	; 62
 motion_set(0x01);
    14ba:	81 e0       	ldi	r24, 0x01	; 1
    14bc:	0e 94 ff 09 	call	0x13fe	; 0x13fe <motion_set>
}
    14c0:	cf 91       	pop	r28
    14c2:	df 91       	pop	r29
    14c4:	08 95       	ret

000014c6 <soft_right_2>:

void soft_right_2 (void)    //Left wheel stationary, Right wheel backward
{
    14c6:	df 93       	push	r29
    14c8:	cf 93       	push	r28
    14ca:	cd b7       	in	r28, 0x3d	; 61
    14cc:	de b7       	in	r29, 0x3e	; 62
 motion_set(0x08);
    14ce:	88 e0       	ldi	r24, 0x08	; 8
    14d0:	0e 94 ff 09 	call	0x13fe	; 0x13fe <motion_set>
}
    14d4:	cf 91       	pop	r28
    14d6:	df 91       	pop	r29
    14d8:	08 95       	ret

000014da <hard_stop>:

void hard_stop (void)       //hard stop(stop suddenly)
{
    14da:	df 93       	push	r29
    14dc:	cf 93       	push	r28
    14de:	cd b7       	in	r28, 0x3d	; 61
    14e0:	de b7       	in	r29, 0x3e	; 62
  motion_set(0x00);
    14e2:	80 e0       	ldi	r24, 0x00	; 0
    14e4:	0e 94 ff 09 	call	0x13fe	; 0x13fe <motion_set>
}
    14e8:	cf 91       	pop	r28
    14ea:	df 91       	pop	r29
    14ec:	08 95       	ret

000014ee <soft_stop>:

void soft_stop (void)       //soft stop(stops slowly)
{
    14ee:	df 93       	push	r29
    14f0:	cf 93       	push	r28
    14f2:	cd b7       	in	r28, 0x3d	; 61
    14f4:	de b7       	in	r29, 0x3e	; 62
  motion_set(0x0F);
    14f6:	8f e0       	ldi	r24, 0x0F	; 15
    14f8:	0e 94 ff 09 	call	0x13fe	; 0x13fe <motion_set>
}
    14fc:	cf 91       	pop	r28
    14fe:	df 91       	pop	r29
    1500:	08 95       	ret

00001502 <adc_init>:

//Function to Initialize ADC
void adc_init()
{
    1502:	df 93       	push	r29
    1504:	cf 93       	push	r28
    1506:	cd b7       	in	r28, 0x3d	; 61
    1508:	de b7       	in	r29, 0x3e	; 62
 ADCSRA = 0x00;
    150a:	e6 e2       	ldi	r30, 0x26	; 38
    150c:	f0 e0       	ldi	r31, 0x00	; 0
    150e:	10 82       	st	Z, r1
 ADMUX = 0x20;		//Vref=5V external --- ADLAR=1 --- MUX4:0 = 0000
    1510:	e7 e2       	ldi	r30, 0x27	; 39
    1512:	f0 e0       	ldi	r31, 0x00	; 0
    1514:	80 e2       	ldi	r24, 0x20	; 32
    1516:	80 83       	st	Z, r24
 ACSR = 0x80;
    1518:	e8 e2       	ldi	r30, 0x28	; 40
    151a:	f0 e0       	ldi	r31, 0x00	; 0
    151c:	80 e8       	ldi	r24, 0x80	; 128
    151e:	80 83       	st	Z, r24
 ADCSRA = 0x86;		//ADEN=1 --- ADIE=1 --- ADPS2:0 = 1 1 0
    1520:	e6 e2       	ldi	r30, 0x26	; 38
    1522:	f0 e0       	ldi	r31, 0x00	; 0
    1524:	86 e8       	ldi	r24, 0x86	; 134
    1526:	80 83       	st	Z, r24
}
    1528:	cf 91       	pop	r28
    152a:	df 91       	pop	r29
    152c:	08 95       	ret

0000152e <init_devices>:


void init_devices (void)
{
    152e:	df 93       	push	r29
    1530:	cf 93       	push	r28
    1532:	cd b7       	in	r28, 0x3d	; 61
    1534:	de b7       	in	r29, 0x3e	; 62
 cli(); //Clears the global interrupts
    1536:	f8 94       	cli
 port_init();
    1538:	0e 94 dc 0a 	call	0x15b8	; 0x15b8 <port_init>
 adc_init();
    153c:	0e 94 81 0a 	call	0x1502	; 0x1502 <adc_init>
 timer1_init();
    1540:	0e 94 e9 0a 	call	0x15d2	; 0x15d2 <timer1_init>
 sei(); //Enables the global interrupts
    1544:	78 94       	sei
}
    1546:	cf 91       	pop	r28
    1548:	df 91       	pop	r29
    154a:	08 95       	ret

0000154c <velocity>:

void velocity (unsigned char left_motor, unsigned char right_motor) 
{
    154c:	df 93       	push	r29
    154e:	cf 93       	push	r28
    1550:	00 d0       	rcall	.+0      	; 0x1552 <velocity+0x6>
    1552:	cd b7       	in	r28, 0x3d	; 61
    1554:	de b7       	in	r29, 0x3e	; 62
    1556:	89 83       	std	Y+1, r24	; 0x01
    1558:	6a 83       	std	Y+2, r22	; 0x02
OCR1AL = left_motor;
    155a:	ea e4       	ldi	r30, 0x4A	; 74
    155c:	f0 e0       	ldi	r31, 0x00	; 0
    155e:	89 81       	ldd	r24, Y+1	; 0x01
    1560:	80 83       	st	Z, r24
OCR1BL = right_motor;
    1562:	e8 e4       	ldi	r30, 0x48	; 72
    1564:	f0 e0       	ldi	r31, 0x00	; 0
    1566:	8a 81       	ldd	r24, Y+2	; 0x02
    1568:	80 83       	st	Z, r24
}
    156a:	0f 90       	pop	r0
    156c:	0f 90       	pop	r0
    156e:	cf 91       	pop	r28
    1570:	df 91       	pop	r29
    1572:	08 95       	ret

00001574 <lcd_port_config>:

//Function to configure LCD port
void lcd_port_config (void)
{
    1574:	df 93       	push	r29
    1576:	cf 93       	push	r28
    1578:	cd b7       	in	r28, 0x3d	; 61
    157a:	de b7       	in	r29, 0x3e	; 62
 DDRC = DDRC | 0xF7;    //all the LCD pin's direction set as output
    157c:	a4 e3       	ldi	r26, 0x34	; 52
    157e:	b0 e0       	ldi	r27, 0x00	; 0
    1580:	e4 e3       	ldi	r30, 0x34	; 52
    1582:	f0 e0       	ldi	r31, 0x00	; 0
    1584:	80 81       	ld	r24, Z
    1586:	87 6f       	ori	r24, 0xF7	; 247
    1588:	8c 93       	st	X, r24
 PORTC = PORTC & 0x80;  // all the LCD pins are set to logic 0 except PORTC 7
    158a:	a5 e3       	ldi	r26, 0x35	; 53
    158c:	b0 e0       	ldi	r27, 0x00	; 0
    158e:	e5 e3       	ldi	r30, 0x35	; 53
    1590:	f0 e0       	ldi	r31, 0x00	; 0
    1592:	80 81       	ld	r24, Z
    1594:	80 78       	andi	r24, 0x80	; 128
    1596:	8c 93       	st	X, r24
}
    1598:	cf 91       	pop	r28
    159a:	df 91       	pop	r29
    159c:	08 95       	ret

0000159e <adc_pin_config>:

//ADC pin configuration
void adc_pin_config (void)
{
    159e:	df 93       	push	r29
    15a0:	cf 93       	push	r28
    15a2:	cd b7       	in	r28, 0x3d	; 61
    15a4:	de b7       	in	r29, 0x3e	; 62
 DDRA = 0x00;   //set PORTF direction as input
    15a6:	ea e3       	ldi	r30, 0x3A	; 58
    15a8:	f0 e0       	ldi	r31, 0x00	; 0
    15aa:	10 82       	st	Z, r1
 PORTA = 0x00;  //set PORTF pins floating
    15ac:	eb e3       	ldi	r30, 0x3B	; 59
    15ae:	f0 e0       	ldi	r31, 0x00	; 0
    15b0:	10 82       	st	Z, r1
}
    15b2:	cf 91       	pop	r28
    15b4:	df 91       	pop	r29
    15b6:	08 95       	ret

000015b8 <port_init>:

//Function to Initialize PORTS
void port_init()
{
    15b8:	df 93       	push	r29
    15ba:	cf 93       	push	r28
    15bc:	cd b7       	in	r28, 0x3d	; 61
    15be:	de b7       	in	r29, 0x3e	; 62
 lcd_port_config();
    15c0:	0e 94 ba 0a 	call	0x1574	; 0x1574 <lcd_port_config>
 adc_pin_config();
    15c4:	0e 94 cf 0a 	call	0x159e	; 0x159e <adc_pin_config>
 motion_pin_config();
    15c8:	0e 94 dc 09 	call	0x13b8	; 0x13b8 <motion_pin_config>
}
    15cc:	cf 91       	pop	r28
    15ce:	df 91       	pop	r29
    15d0:	08 95       	ret

000015d2 <timer1_init>:
//TIMER1 initialize - prescale:64
// WGM: 5) PWM 8bit fast, TOP=0x00FF
// desired value: 450Hz
// actual value: 450.000Hz (0.0%)
void timer1_init(void)
{
    15d2:	df 93       	push	r29
    15d4:	cf 93       	push	r28
    15d6:	cd b7       	in	r28, 0x3d	; 61
    15d8:	de b7       	in	r29, 0x3e	; 62
 TCCR1B = 0x00; //stop
    15da:	ee e4       	ldi	r30, 0x4E	; 78
    15dc:	f0 e0       	ldi	r31, 0x00	; 0
    15de:	10 82       	st	Z, r1
 TCNT1H = 0xFF; //setup
    15e0:	ed e4       	ldi	r30, 0x4D	; 77
    15e2:	f0 e0       	ldi	r31, 0x00	; 0
    15e4:	8f ef       	ldi	r24, 0xFF	; 255
    15e6:	80 83       	st	Z, r24
 TCNT1L = 0x01;
    15e8:	ec e4       	ldi	r30, 0x4C	; 76
    15ea:	f0 e0       	ldi	r31, 0x00	; 0
    15ec:	81 e0       	ldi	r24, 0x01	; 1
    15ee:	80 83       	st	Z, r24
 OCR1AH = 0x00;
    15f0:	eb e4       	ldi	r30, 0x4B	; 75
    15f2:	f0 e0       	ldi	r31, 0x00	; 0
    15f4:	10 82       	st	Z, r1
 OCR1AL = 0xFF;
    15f6:	ea e4       	ldi	r30, 0x4A	; 74
    15f8:	f0 e0       	ldi	r31, 0x00	; 0
    15fa:	8f ef       	ldi	r24, 0xFF	; 255
    15fc:	80 83       	st	Z, r24
 OCR1BH = 0x00;
    15fe:	e9 e4       	ldi	r30, 0x49	; 73
    1600:	f0 e0       	ldi	r31, 0x00	; 0
    1602:	10 82       	st	Z, r1
 OCR1BL = 0xFF;
    1604:	e8 e4       	ldi	r30, 0x48	; 72
    1606:	f0 e0       	ldi	r31, 0x00	; 0
    1608:	8f ef       	ldi	r24, 0xFF	; 255
    160a:	80 83       	st	Z, r24
 ICR1H  = 0x00;
    160c:	e7 e4       	ldi	r30, 0x47	; 71
    160e:	f0 e0       	ldi	r31, 0x00	; 0
    1610:	10 82       	st	Z, r1
 ICR1L  = 0xFF;
    1612:	e6 e4       	ldi	r30, 0x46	; 70
    1614:	f0 e0       	ldi	r31, 0x00	; 0
    1616:	8f ef       	ldi	r24, 0xFF	; 255
    1618:	80 83       	st	Z, r24
 TCCR1A = 0xA1;
    161a:	ef e4       	ldi	r30, 0x4F	; 79
    161c:	f0 e0       	ldi	r31, 0x00	; 0
    161e:	81 ea       	ldi	r24, 0xA1	; 161
    1620:	80 83       	st	Z, r24
 TCCR1B = 0x0D; //start Timer
    1622:	ee e4       	ldi	r30, 0x4E	; 78
    1624:	f0 e0       	ldi	r31, 0x00	; 0
    1626:	8d e0       	ldi	r24, 0x0D	; 13
    1628:	80 83       	st	Z, r24
}
    162a:	cf 91       	pop	r28
    162c:	df 91       	pop	r29
    162e:	08 95       	ret

00001630 <ADC_Conversion>:

//This Function accepts the Channel Number and returns the corresponding Analog Value
unsigned char ADC_Conversion(unsigned char Ch)
{
    1630:	df 93       	push	r29
    1632:	cf 93       	push	r28
    1634:	00 d0       	rcall	.+0      	; 0x1636 <ADC_Conversion+0x6>
    1636:	cd b7       	in	r28, 0x3d	; 61
    1638:	de b7       	in	r29, 0x3e	; 62
    163a:	8a 83       	std	Y+2, r24	; 0x02
 unsigned char a;
 Ch = Ch & 0x07;
    163c:	8a 81       	ldd	r24, Y+2	; 0x02
    163e:	87 70       	andi	r24, 0x07	; 7
    1640:	8a 83       	std	Y+2, r24	; 0x02
 ADMUX= 0x20| Ch;
    1642:	e7 e2       	ldi	r30, 0x27	; 39
    1644:	f0 e0       	ldi	r31, 0x00	; 0
    1646:	8a 81       	ldd	r24, Y+2	; 0x02
    1648:	80 62       	ori	r24, 0x20	; 32
    164a:	80 83       	st	Z, r24
 ADCSRA = ADCSRA | 0x40;	//Set start conversion bit
    164c:	a6 e2       	ldi	r26, 0x26	; 38
    164e:	b0 e0       	ldi	r27, 0x00	; 0
    1650:	e6 e2       	ldi	r30, 0x26	; 38
    1652:	f0 e0       	ldi	r31, 0x00	; 0
    1654:	80 81       	ld	r24, Z
    1656:	80 64       	ori	r24, 0x40	; 64
    1658:	8c 93       	st	X, r24
 while((ADCSRA&0x10)==0);	//Wait for ADC conversion to complete
    165a:	e6 e2       	ldi	r30, 0x26	; 38
    165c:	f0 e0       	ldi	r31, 0x00	; 0
    165e:	80 81       	ld	r24, Z
    1660:	88 2f       	mov	r24, r24
    1662:	90 e0       	ldi	r25, 0x00	; 0
    1664:	80 71       	andi	r24, 0x10	; 16
    1666:	90 70       	andi	r25, 0x00	; 0
    1668:	00 97       	sbiw	r24, 0x00	; 0
    166a:	b9 f3       	breq	.-18     	; 0x165a <ADC_Conversion+0x2a>
 a=ADCH;
    166c:	e5 e2       	ldi	r30, 0x25	; 37
    166e:	f0 e0       	ldi	r31, 0x00	; 0
    1670:	80 81       	ld	r24, Z
    1672:	89 83       	std	Y+1, r24	; 0x01
 ADCSRA = ADCSRA|0x10;      //clear ADIF (ADC Interrupt Flag) by writing 1 to it
    1674:	a6 e2       	ldi	r26, 0x26	; 38
    1676:	b0 e0       	ldi	r27, 0x00	; 0
    1678:	e6 e2       	ldi	r30, 0x26	; 38
    167a:	f0 e0       	ldi	r31, 0x00	; 0
    167c:	80 81       	ld	r24, Z
    167e:	80 61       	ori	r24, 0x10	; 16
    1680:	8c 93       	st	X, r24
 return a;
    1682:	89 81       	ldd	r24, Y+1	; 0x01
}
    1684:	0f 90       	pop	r0
    1686:	0f 90       	pop	r0
    1688:	cf 91       	pop	r28
    168a:	df 91       	pop	r29
    168c:	08 95       	ret

0000168e <main>:


//Main Function
int main(void)
{
    168e:	df 93       	push	r29
    1690:	cf 93       	push	r28
    1692:	cd b7       	in	r28, 0x3d	; 61
    1694:	de b7       	in	r29, 0x3e	; 62
    1696:	c0 54       	subi	r28, 0x40	; 64
    1698:	d0 40       	sbci	r29, 0x00	; 0
    169a:	0f b6       	in	r0, 0x3f	; 63
    169c:	f8 94       	cli
    169e:	de bf       	out	0x3e, r29	; 62
    16a0:	0f be       	out	0x3f, r0	; 63
    16a2:	cd bf       	out	0x3d, r28	; 61
	//...............DECLARED VARIABLES................//
	int kp = 2;
    16a4:	82 e0       	ldi	r24, 0x02	; 2
    16a6:	90 e0       	ldi	r25, 0x00	; 0
    16a8:	fe 01       	movw	r30, r28
    16aa:	ff 96       	adiw	r30, 0x3f	; 63
    16ac:	91 83       	std	Z+1, r25	; 0x01
    16ae:	80 83       	st	Z, r24
	int ki = 0;
    16b0:	1e ae       	std	Y+62, r1	; 0x3e
    16b2:	1d ae       	std	Y+61, r1	; 0x3d
	int kd = 4;
    16b4:	84 e0       	ldi	r24, 0x04	; 4
    16b6:	90 e0       	ldi	r25, 0x00	; 0
    16b8:	9c af       	std	Y+60, r25	; 0x3c
    16ba:	8b af       	std	Y+59, r24	; 0x3b
	int PID = 0, e=0, e_old=0;
    16bc:	1a ae       	std	Y+58, r1	; 0x3a
    16be:	19 ae       	std	Y+57, r1	; 0x39
    16c0:	18 ae       	std	Y+56, r1	; 0x38
    16c2:	1f aa       	std	Y+55, r1	; 0x37
    16c4:	1e aa       	std	Y+54, r1	; 0x36
    16c6:	1d aa       	std	Y+53, r1	; 0x35
	int e_i=0;
    16c8:	1c aa       	std	Y+52, r1	; 0x34
    16ca:	1b aa       	std	Y+51, r1	; 0x33
	int e_d=0;
    16cc:	1a aa       	std	Y+50, r1	; 0x32
    16ce:	19 aa       	std	Y+49, r1	; 0x31
	//unsigned int output=0;	

	//...............PRESET OR BIAS VARIABLES................//
	//int P=2; //to eliminate any zero bias value present in the error
	int S=90; //set velocity
    16d0:	8a e5       	ldi	r24, 0x5A	; 90
    16d2:	90 e0       	ldi	r25, 0x00	; 0
    16d4:	98 ab       	std	Y+48, r25	; 0x30
    16d6:	8f a7       	std	Y+47, r24	; 0x2f
	int lm=0,rm=0;
    16d8:	1e a6       	std	Y+46, r1	; 0x2e
    16da:	1d a6       	std	Y+45, r1	; 0x2d
    16dc:	1c a6       	std	Y+44, r1	; 0x2c
    16de:	1b a6       	std	Y+43, r1	; 0x2b

 init_devices();
    16e0:	0e 94 97 0a 	call	0x152e	; 0x152e <init_devices>

 lcd_set_4bit();
    16e4:	0e 94 49 00 	call	0x92	; 0x92 <lcd_set_4bit>
 lcd_init();
    16e8:	0e 94 48 05 	call	0xa90	; 0xa90 <lcd_init>


while(1)
{
	l=ADC_Conversion(3);
    16ec:	83 e0       	ldi	r24, 0x03	; 3
    16ee:	0e 94 18 0b 	call	0x1630	; 0x1630 <ADC_Conversion>
    16f2:	80 93 68 00 	sts	0x0068, r24
	c=ADC_Conversion(4);
    16f6:	84 e0       	ldi	r24, 0x04	; 4
    16f8:	0e 94 18 0b 	call	0x1630	; 0x1630 <ADC_Conversion>
    16fc:	80 93 69 00 	sts	0x0069, r24
	r=ADC_Conversion(5);
    1700:	85 e0       	ldi	r24, 0x05	; 5
    1702:	0e 94 18 0b 	call	0x1630	; 0x1630 <ADC_Conversion>
    1706:	80 93 6a 00 	sts	0x006A, r24
	//lcd_print(1, 1, l, 3); //l is left reading
	//lcd_print(1, 5, c, 3); //c is centre reading
	//lcd_print(1, 9, r, 3); //r is right reading
	//_delay_ms(300);
	////////////////////////ERROR FUNCTION///////////////////////
	e = l-r;
    170a:	80 91 68 00 	lds	r24, 0x0068
    170e:	28 2f       	mov	r18, r24
    1710:	30 e0       	ldi	r19, 0x00	; 0
    1712:	80 91 6a 00 	lds	r24, 0x006A
    1716:	88 2f       	mov	r24, r24
    1718:	90 e0       	ldi	r25, 0x00	; 0
    171a:	a9 01       	movw	r20, r18
    171c:	48 1b       	sub	r20, r24
    171e:	59 0b       	sbc	r21, r25
    1720:	ca 01       	movw	r24, r20
    1722:	98 af       	std	Y+56, r25	; 0x38
    1724:	8f ab       	std	Y+55, r24	; 0x37
	
/* 	if(e>=0){lcd_print(2, 1, e, 3);}
	else if(e<0){lcd_print(2, 1, (-1*e), 3);} */
	
	//////////////////////////PID/////////////////////////////////////
	e_i += e;
    1726:	2b a9       	ldd	r18, Y+51	; 0x33
    1728:	3c a9       	ldd	r19, Y+52	; 0x34
    172a:	8f a9       	ldd	r24, Y+55	; 0x37
    172c:	98 ad       	ldd	r25, Y+56	; 0x38
    172e:	82 0f       	add	r24, r18
    1730:	93 1f       	adc	r25, r19
    1732:	9c ab       	std	Y+52, r25	; 0x34
    1734:	8b ab       	std	Y+51, r24	; 0x33
	e_d = e - e_old;
    1736:	2f a9       	ldd	r18, Y+55	; 0x37
    1738:	38 ad       	ldd	r19, Y+56	; 0x38
    173a:	8d a9       	ldd	r24, Y+53	; 0x35
    173c:	9e a9       	ldd	r25, Y+54	; 0x36
    173e:	b9 01       	movw	r22, r18
    1740:	68 1b       	sub	r22, r24
    1742:	79 0b       	sbc	r23, r25
    1744:	cb 01       	movw	r24, r22
    1746:	9a ab       	std	Y+50, r25	; 0x32
    1748:	89 ab       	std	Y+49, r24	; 0x31
 	PID = (kp*e + ki*e_i + kd*e_d);
    174a:	fe 01       	movw	r30, r28
    174c:	ff 96       	adiw	r30, 0x3f	; 63
    174e:	20 81       	ld	r18, Z
    1750:	31 81       	ldd	r19, Z+1	; 0x01
    1752:	8f a9       	ldd	r24, Y+55	; 0x37
    1754:	98 ad       	ldd	r25, Y+56	; 0x38
    1756:	28 9f       	mul	r18, r24
    1758:	a0 01       	movw	r20, r0
    175a:	29 9f       	mul	r18, r25
    175c:	50 0d       	add	r21, r0
    175e:	38 9f       	mul	r19, r24
    1760:	50 0d       	add	r21, r0
    1762:	11 24       	eor	r1, r1
    1764:	2d ad       	ldd	r18, Y+61	; 0x3d
    1766:	3e ad       	ldd	r19, Y+62	; 0x3e
    1768:	8b a9       	ldd	r24, Y+51	; 0x33
    176a:	9c a9       	ldd	r25, Y+52	; 0x34
    176c:	bc 01       	movw	r22, r24
    176e:	26 9f       	mul	r18, r22
    1770:	c0 01       	movw	r24, r0
    1772:	27 9f       	mul	r18, r23
    1774:	90 0d       	add	r25, r0
    1776:	36 9f       	mul	r19, r22
    1778:	90 0d       	add	r25, r0
    177a:	11 24       	eor	r1, r1
    177c:	48 0f       	add	r20, r24
    177e:	59 1f       	adc	r21, r25
    1780:	2b ad       	ldd	r18, Y+59	; 0x3b
    1782:	3c ad       	ldd	r19, Y+60	; 0x3c
    1784:	89 a9       	ldd	r24, Y+49	; 0x31
    1786:	9a a9       	ldd	r25, Y+50	; 0x32
    1788:	bc 01       	movw	r22, r24
    178a:	26 9f       	mul	r18, r22
    178c:	c0 01       	movw	r24, r0
    178e:	27 9f       	mul	r18, r23
    1790:	90 0d       	add	r25, r0
    1792:	36 9f       	mul	r19, r22
    1794:	90 0d       	add	r25, r0
    1796:	11 24       	eor	r1, r1
    1798:	84 0f       	add	r24, r20
    179a:	95 1f       	adc	r25, r21
    179c:	9a af       	std	Y+58, r25	; 0x3a
    179e:	89 af       	std	Y+57, r24	; 0x39
	e_old = e;	
    17a0:	8f a9       	ldd	r24, Y+55	; 0x37
    17a2:	98 ad       	ldd	r25, Y+56	; 0x38
    17a4:	9e ab       	std	Y+54, r25	; 0x36
    17a6:	8d ab       	std	Y+53, r24	; 0x35
	

	/////////////////////////DECIDING THE DIRECTION OF THE BOT////////
	if(c>20){forward();}
    17a8:	80 91 69 00 	lds	r24, 0x0069
    17ac:	85 31       	cpi	r24, 0x15	; 21
    17ae:	10 f0       	brcs	.+4      	; 0x17b4 <main+0x126>
    17b0:	0e 94 1d 0a 	call	0x143a	; 0x143a <forward>
	if(PID>-70 && PID<70){lm=S-PID;rm=S+PID;}
    17b4:	89 ad       	ldd	r24, Y+57	; 0x39
    17b6:	9a ad       	ldd	r25, Y+58	; 0x3a
    17b8:	7f ef       	ldi	r23, 0xFF	; 255
    17ba:	8b 3b       	cpi	r24, 0xBB	; 187
    17bc:	97 07       	cpc	r25, r23
    17be:	c4 f0       	brlt	.+48     	; 0x17f0 <main+0x162>
    17c0:	89 ad       	ldd	r24, Y+57	; 0x39
    17c2:	9a ad       	ldd	r25, Y+58	; 0x3a
    17c4:	86 34       	cpi	r24, 0x46	; 70
    17c6:	91 05       	cpc	r25, r1
    17c8:	9c f4       	brge	.+38     	; 0x17f0 <main+0x162>
    17ca:	2f a5       	ldd	r18, Y+47	; 0x2f
    17cc:	38 a9       	ldd	r19, Y+48	; 0x30
    17ce:	89 ad       	ldd	r24, Y+57	; 0x39
    17d0:	9a ad       	ldd	r25, Y+58	; 0x3a
    17d2:	a9 01       	movw	r20, r18
    17d4:	48 1b       	sub	r20, r24
    17d6:	59 0b       	sbc	r21, r25
    17d8:	ca 01       	movw	r24, r20
    17da:	9e a7       	std	Y+46, r25	; 0x2e
    17dc:	8d a7       	std	Y+45, r24	; 0x2d
    17de:	2f a5       	ldd	r18, Y+47	; 0x2f
    17e0:	38 a9       	ldd	r19, Y+48	; 0x30
    17e2:	89 ad       	ldd	r24, Y+57	; 0x39
    17e4:	9a ad       	ldd	r25, Y+58	; 0x3a
    17e6:	82 0f       	add	r24, r18
    17e8:	93 1f       	adc	r25, r19
    17ea:	9c a7       	std	Y+44, r25	; 0x2c
    17ec:	8b a7       	std	Y+43, r24	; 0x2b
    17ee:	60 c0       	rjmp	.+192    	; 0x18b0 <main+0x222>
	else if(PID>70 && PID<130){lm=0;rm=S+PID;}
    17f0:	89 ad       	ldd	r24, Y+57	; 0x39
    17f2:	9a ad       	ldd	r25, Y+58	; 0x3a
    17f4:	87 34       	cpi	r24, 0x47	; 71
    17f6:	91 05       	cpc	r25, r1
    17f8:	84 f0       	brlt	.+32     	; 0x181a <main+0x18c>
    17fa:	89 ad       	ldd	r24, Y+57	; 0x39
    17fc:	9a ad       	ldd	r25, Y+58	; 0x3a
    17fe:	82 38       	cpi	r24, 0x82	; 130
    1800:	91 05       	cpc	r25, r1
    1802:	5c f4       	brge	.+22     	; 0x181a <main+0x18c>
    1804:	1e a6       	std	Y+46, r1	; 0x2e
    1806:	1d a6       	std	Y+45, r1	; 0x2d
    1808:	8f a5       	ldd	r24, Y+47	; 0x2f
    180a:	98 a9       	ldd	r25, Y+48	; 0x30
    180c:	29 ad       	ldd	r18, Y+57	; 0x39
    180e:	3a ad       	ldd	r19, Y+58	; 0x3a
    1810:	82 0f       	add	r24, r18
    1812:	93 1f       	adc	r25, r19
    1814:	9c a7       	std	Y+44, r25	; 0x2c
    1816:	8b a7       	std	Y+43, r24	; 0x2b
    1818:	4b c0       	rjmp	.+150    	; 0x18b0 <main+0x222>
	else if(PID>-70 && PID<-130){lm=S-PID;rm=0;}
    181a:	89 ad       	ldd	r24, Y+57	; 0x39
    181c:	9a ad       	ldd	r25, Y+58	; 0x3a
    181e:	5f ef       	ldi	r21, 0xFF	; 255
    1820:	8b 3b       	cpi	r24, 0xBB	; 187
    1822:	95 07       	cpc	r25, r21
    1824:	8c f0       	brlt	.+34     	; 0x1848 <main+0x1ba>
    1826:	89 ad       	ldd	r24, Y+57	; 0x39
    1828:	9a ad       	ldd	r25, Y+58	; 0x3a
    182a:	6f ef       	ldi	r22, 0xFF	; 255
    182c:	8e 37       	cpi	r24, 0x7E	; 126
    182e:	96 07       	cpc	r25, r22
    1830:	5c f4       	brge	.+22     	; 0x1848 <main+0x1ba>
    1832:	8f a5       	ldd	r24, Y+47	; 0x2f
    1834:	98 a9       	ldd	r25, Y+48	; 0x30
    1836:	29 ad       	ldd	r18, Y+57	; 0x39
    1838:	3a ad       	ldd	r19, Y+58	; 0x3a
    183a:	82 1b       	sub	r24, r18
    183c:	93 0b       	sbc	r25, r19
    183e:	9e a7       	std	Y+46, r25	; 0x2e
    1840:	8d a7       	std	Y+45, r24	; 0x2d
    1842:	1c a6       	std	Y+44, r1	; 0x2c
    1844:	1b a6       	std	Y+43, r1	; 0x2b
    1846:	34 c0       	rjmp	.+104    	; 0x18b0 <main+0x222>
	else if(PID>130){left();lm=S+PID;rm=S+PID;}
    1848:	89 ad       	ldd	r24, Y+57	; 0x39
    184a:	9a ad       	ldd	r25, Y+58	; 0x3a
    184c:	83 38       	cpi	r24, 0x83	; 131
    184e:	91 05       	cpc	r25, r1
    1850:	9c f0       	brlt	.+38     	; 0x1878 <main+0x1ea>
    1852:	0e 94 31 0a 	call	0x1462	; 0x1462 <left>
    1856:	2f a5       	ldd	r18, Y+47	; 0x2f
    1858:	38 a9       	ldd	r19, Y+48	; 0x30
    185a:	89 ad       	ldd	r24, Y+57	; 0x39
    185c:	9a ad       	ldd	r25, Y+58	; 0x3a
    185e:	82 0f       	add	r24, r18
    1860:	93 1f       	adc	r25, r19
    1862:	9e a7       	std	Y+46, r25	; 0x2e
    1864:	8d a7       	std	Y+45, r24	; 0x2d
    1866:	2f a5       	ldd	r18, Y+47	; 0x2f
    1868:	38 a9       	ldd	r19, Y+48	; 0x30
    186a:	89 ad       	ldd	r24, Y+57	; 0x39
    186c:	9a ad       	ldd	r25, Y+58	; 0x3a
    186e:	82 0f       	add	r24, r18
    1870:	93 1f       	adc	r25, r19
    1872:	9c a7       	std	Y+44, r25	; 0x2c
    1874:	8b a7       	std	Y+43, r24	; 0x2b
    1876:	1c c0       	rjmp	.+56     	; 0x18b0 <main+0x222>
	else if(PID<-130){right();lm=S-PID;rm=S-PID;}
    1878:	89 ad       	ldd	r24, Y+57	; 0x39
    187a:	9a ad       	ldd	r25, Y+58	; 0x3a
    187c:	7f ef       	ldi	r23, 0xFF	; 255
    187e:	8e 37       	cpi	r24, 0x7E	; 126
    1880:	97 07       	cpc	r25, r23
    1882:	b4 f4       	brge	.+44     	; 0x18b0 <main+0x222>
    1884:	0e 94 3b 0a 	call	0x1476	; 0x1476 <right>
    1888:	2f a5       	ldd	r18, Y+47	; 0x2f
    188a:	38 a9       	ldd	r19, Y+48	; 0x30
    188c:	89 ad       	ldd	r24, Y+57	; 0x39
    188e:	9a ad       	ldd	r25, Y+58	; 0x3a
    1890:	a9 01       	movw	r20, r18
    1892:	48 1b       	sub	r20, r24
    1894:	59 0b       	sbc	r21, r25
    1896:	ca 01       	movw	r24, r20
    1898:	9e a7       	std	Y+46, r25	; 0x2e
    189a:	8d a7       	std	Y+45, r24	; 0x2d
    189c:	2f a5       	ldd	r18, Y+47	; 0x2f
    189e:	38 a9       	ldd	r19, Y+48	; 0x30
    18a0:	89 ad       	ldd	r24, Y+57	; 0x39
    18a2:	9a ad       	ldd	r25, Y+58	; 0x3a
    18a4:	b9 01       	movw	r22, r18
    18a6:	68 1b       	sub	r22, r24
    18a8:	79 0b       	sbc	r23, r25
    18aa:	cb 01       	movw	r24, r22
    18ac:	9c a7       	std	Y+44, r25	; 0x2c
    18ae:	8b a7       	std	Y+43, r24	; 0x2b
	//////////////////////////LIMIT CHECKS FOR THE BOTS///////////////
	if(lm>250){lm=250;}
    18b0:	8d a5       	ldd	r24, Y+45	; 0x2d
    18b2:	9e a5       	ldd	r25, Y+46	; 0x2e
    18b4:	8b 3f       	cpi	r24, 0xFB	; 251
    18b6:	91 05       	cpc	r25, r1
    18b8:	24 f0       	brlt	.+8      	; 0x18c2 <main+0x234>
    18ba:	8a ef       	ldi	r24, 0xFA	; 250
    18bc:	90 e0       	ldi	r25, 0x00	; 0
    18be:	9e a7       	std	Y+46, r25	; 0x2e
    18c0:	8d a7       	std	Y+45, r24	; 0x2d
	if(rm>250){rm=250;}
    18c2:	8b a5       	ldd	r24, Y+43	; 0x2b
    18c4:	9c a5       	ldd	r25, Y+44	; 0x2c
    18c6:	8b 3f       	cpi	r24, 0xFB	; 251
    18c8:	91 05       	cpc	r25, r1
    18ca:	24 f0       	brlt	.+8      	; 0x18d4 <main+0x246>
    18cc:	8a ef       	ldi	r24, 0xFA	; 250
    18ce:	90 e0       	ldi	r25, 0x00	; 0
    18d0:	9c a7       	std	Y+44, r25	; 0x2c
    18d2:	8b a7       	std	Y+43, r24	; 0x2b
	if(lm<0){lm=0;}
    18d4:	8d a5       	ldd	r24, Y+45	; 0x2d
    18d6:	9e a5       	ldd	r25, Y+46	; 0x2e
    18d8:	99 23       	and	r25, r25
    18da:	14 f4       	brge	.+4      	; 0x18e0 <main+0x252>
    18dc:	1e a6       	std	Y+46, r1	; 0x2e
    18de:	1d a6       	std	Y+45, r1	; 0x2d
	if(rm<0){rm=0;}
    18e0:	8b a5       	ldd	r24, Y+43	; 0x2b
    18e2:	9c a5       	ldd	r25, Y+44	; 0x2c
    18e4:	99 23       	and	r25, r25
    18e6:	14 f4       	brge	.+4      	; 0x18ec <main+0x25e>
    18e8:	1c a6       	std	Y+44, r1	; 0x2c
    18ea:	1b a6       	std	Y+43, r1	; 0x2b
	//////////////////////////MISCELLANEOUS CHECKS////////////////////
	if(PID<20 && PID>-20){
    18ec:	89 ad       	ldd	r24, Y+57	; 0x39
    18ee:	9a ad       	ldd	r25, Y+58	; 0x3a
    18f0:	84 31       	cpi	r24, 0x14	; 20
    18f2:	91 05       	cpc	r25, r1
    18f4:	6c f4       	brge	.+26     	; 0x1910 <main+0x282>
    18f6:	89 ad       	ldd	r24, Y+57	; 0x39
    18f8:	9a ad       	ldd	r25, Y+58	; 0x3a
    18fa:	7f ef       	ldi	r23, 0xFF	; 255
    18fc:	8d 3e       	cpi	r24, 0xED	; 237
    18fe:	97 07       	cpc	r25, r23
    1900:	3c f0       	brlt	.+14     	; 0x1910 <main+0x282>
		forward();
    1902:	0e 94 1d 0a 	call	0x143a	; 0x143a <forward>
		velocity(90,90);
    1906:	8a e5       	ldi	r24, 0x5A	; 90
    1908:	6a e5       	ldi	r22, 0x5A	; 90
    190a:	0e 94 a6 0a 	call	0x154c	; 0x154c <velocity>
    190e:	ee ce       	rjmp	.-548    	; 0x16ec <main+0x5e>
	}
	//////OVERCOMING THE THREE BLACK//////////////
	else if(l>100 && c>100 && r>100){ // Black Black Black
    1910:	80 91 68 00 	lds	r24, 0x0068
    1914:	85 36       	cpi	r24, 0x65	; 101
    1916:	08 f4       	brcc	.+2      	; 0x191a <main+0x28c>
    1918:	83 c0       	rjmp	.+262    	; 0x1a20 <main+0x392>
    191a:	80 91 69 00 	lds	r24, 0x0069
    191e:	85 36       	cpi	r24, 0x65	; 101
    1920:	08 f4       	brcc	.+2      	; 0x1924 <main+0x296>
    1922:	7e c0       	rjmp	.+252    	; 0x1a20 <main+0x392>
    1924:	80 91 6a 00 	lds	r24, 0x006A
    1928:	85 36       	cpi	r24, 0x65	; 101
    192a:	08 f4       	brcc	.+2      	; 0x192e <main+0x2a0>
    192c:	79 c0       	rjmp	.+242    	; 0x1a20 <main+0x392>
		forward();
    192e:	0e 94 1d 0a 	call	0x143a	; 0x143a <forward>
		velocity(90,90);
    1932:	8a e5       	ldi	r24, 0x5A	; 90
    1934:	6a e5       	ldi	r22, 0x5A	; 90
    1936:	0e 94 a6 0a 	call	0x154c	; 0x154c <velocity>
    193a:	80 e0       	ldi	r24, 0x00	; 0
    193c:	90 e0       	ldi	r25, 0x00	; 0
    193e:	a8 ec       	ldi	r26, 0xC8	; 200
    1940:	b2 e4       	ldi	r27, 0x42	; 66
    1942:	8f a3       	std	Y+39, r24	; 0x27
    1944:	98 a7       	std	Y+40, r25	; 0x28
    1946:	a9 a7       	std	Y+41, r26	; 0x29
    1948:	ba a7       	std	Y+42, r27	; 0x2a
 */
void
_delay_ms(double __ms)
{
	uint16_t __ticks;
	double __tmp = ((F_CPU) / 4e3) * __ms;
    194a:	6f a1       	ldd	r22, Y+39	; 0x27
    194c:	78 a5       	ldd	r23, Y+40	; 0x28
    194e:	89 a5       	ldd	r24, Y+41	; 0x29
    1950:	9a a5       	ldd	r25, Y+42	; 0x2a
    1952:	26 e6       	ldi	r18, 0x66	; 102
    1954:	36 e6       	ldi	r19, 0x66	; 102
    1956:	46 ee       	ldi	r20, 0xE6	; 230
    1958:	54 e4       	ldi	r21, 0x44	; 68
    195a:	0e 94 fc 0f 	call	0x1ff8	; 0x1ff8 <__mulsf3>
    195e:	dc 01       	movw	r26, r24
    1960:	cb 01       	movw	r24, r22
    1962:	8b a3       	std	Y+35, r24	; 0x23
    1964:	9c a3       	std	Y+36, r25	; 0x24
    1966:	ad a3       	std	Y+37, r26	; 0x25
    1968:	be a3       	std	Y+38, r27	; 0x26
	if (__tmp < 1.0)
    196a:	6b a1       	ldd	r22, Y+35	; 0x23
    196c:	7c a1       	ldd	r23, Y+36	; 0x24
    196e:	8d a1       	ldd	r24, Y+37	; 0x25
    1970:	9e a1       	ldd	r25, Y+38	; 0x26
    1972:	20 e0       	ldi	r18, 0x00	; 0
    1974:	30 e0       	ldi	r19, 0x00	; 0
    1976:	40 e8       	ldi	r20, 0x80	; 128
    1978:	5f e3       	ldi	r21, 0x3F	; 63
    197a:	0e 94 56 11 	call	0x22ac	; 0x22ac <__ltsf2>
    197e:	88 23       	and	r24, r24
    1980:	2c f4       	brge	.+10     	; 0x198c <main+0x2fe>
		__ticks = 1;
    1982:	81 e0       	ldi	r24, 0x01	; 1
    1984:	90 e0       	ldi	r25, 0x00	; 0
    1986:	9a a3       	std	Y+34, r25	; 0x22
    1988:	89 a3       	std	Y+33, r24	; 0x21
    198a:	3f c0       	rjmp	.+126    	; 0x1a0a <main+0x37c>
	else if (__tmp > 65535)
    198c:	6b a1       	ldd	r22, Y+35	; 0x23
    198e:	7c a1       	ldd	r23, Y+36	; 0x24
    1990:	8d a1       	ldd	r24, Y+37	; 0x25
    1992:	9e a1       	ldd	r25, Y+38	; 0x26
    1994:	20 e0       	ldi	r18, 0x00	; 0
    1996:	3f ef       	ldi	r19, 0xFF	; 255
    1998:	4f e7       	ldi	r20, 0x7F	; 127
    199a:	57 e4       	ldi	r21, 0x47	; 71
    199c:	0e 94 f6 10 	call	0x21ec	; 0x21ec <__gtsf2>
    19a0:	18 16       	cp	r1, r24
    19a2:	4c f5       	brge	.+82     	; 0x19f6 <main+0x368>
	{
		//	__ticks = requested delay in 1/10 ms
		__ticks = (uint16_t) (__ms * 10.0);
    19a4:	6f a1       	ldd	r22, Y+39	; 0x27
    19a6:	78 a5       	ldd	r23, Y+40	; 0x28
    19a8:	89 a5       	ldd	r24, Y+41	; 0x29
    19aa:	9a a5       	ldd	r25, Y+42	; 0x2a
    19ac:	20 e0       	ldi	r18, 0x00	; 0
    19ae:	30 e0       	ldi	r19, 0x00	; 0
    19b0:	40 e2       	ldi	r20, 0x20	; 32
    19b2:	51 e4       	ldi	r21, 0x41	; 65
    19b4:	0e 94 fc 0f 	call	0x1ff8	; 0x1ff8 <__mulsf3>
    19b8:	dc 01       	movw	r26, r24
    19ba:	cb 01       	movw	r24, r22
    19bc:	bc 01       	movw	r22, r24
    19be:	cd 01       	movw	r24, r26
    19c0:	0e 94 26 0e 	call	0x1c4c	; 0x1c4c <__fixunssfsi>
    19c4:	dc 01       	movw	r26, r24
    19c6:	cb 01       	movw	r24, r22
    19c8:	9a a3       	std	Y+34, r25	; 0x22
    19ca:	89 a3       	std	Y+33, r24	; 0x21
    19cc:	0f c0       	rjmp	.+30     	; 0x19ec <main+0x35e>
    19ce:	88 eb       	ldi	r24, 0xB8	; 184
    19d0:	90 e0       	ldi	r25, 0x00	; 0
    19d2:	98 a3       	std	Y+32, r25	; 0x20
    19d4:	8f 8f       	std	Y+31, r24	; 0x1f
    19d6:	8f 8d       	ldd	r24, Y+31	; 0x1f
    19d8:	98 a1       	ldd	r25, Y+32	; 0x20
    19da:	01 97       	sbiw	r24, 0x01	; 1
    19dc:	f1 f7       	brne	.-4      	; 0x19da <main+0x34c>
    19de:	98 a3       	std	Y+32, r25	; 0x20
    19e0:	8f 8f       	std	Y+31, r24	; 0x1f
		while(__ticks)
		{
			// wait 1/10 ms
			_delay_loop_2(((F_CPU) / 4e3) / 10);
			__ticks --;
    19e2:	89 a1       	ldd	r24, Y+33	; 0x21
    19e4:	9a a1       	ldd	r25, Y+34	; 0x22
    19e6:	01 97       	sbiw	r24, 0x01	; 1
    19e8:	9a a3       	std	Y+34, r25	; 0x22
    19ea:	89 a3       	std	Y+33, r24	; 0x21
		__ticks = 1;
	else if (__tmp > 65535)
	{
		//	__ticks = requested delay in 1/10 ms
		__ticks = (uint16_t) (__ms * 10.0);
		while(__ticks)
    19ec:	89 a1       	ldd	r24, Y+33	; 0x21
    19ee:	9a a1       	ldd	r25, Y+34	; 0x22
    19f0:	00 97       	sbiw	r24, 0x00	; 0
    19f2:	69 f7       	brne	.-38     	; 0x19ce <main+0x340>
    19f4:	7b ce       	rjmp	.-778    	; 0x16ec <main+0x5e>
			__ticks --;
		}
		return;
	}
	else
		__ticks = (uint16_t)__tmp;
    19f6:	6b a1       	ldd	r22, Y+35	; 0x23
    19f8:	7c a1       	ldd	r23, Y+36	; 0x24
    19fa:	8d a1       	ldd	r24, Y+37	; 0x25
    19fc:	9e a1       	ldd	r25, Y+38	; 0x26
    19fe:	0e 94 26 0e 	call	0x1c4c	; 0x1c4c <__fixunssfsi>
    1a02:	dc 01       	movw	r26, r24
    1a04:	cb 01       	movw	r24, r22
    1a06:	9a a3       	std	Y+34, r25	; 0x22
    1a08:	89 a3       	std	Y+33, r24	; 0x21
    1a0a:	89 a1       	ldd	r24, Y+33	; 0x21
    1a0c:	9a a1       	ldd	r25, Y+34	; 0x22
    1a0e:	9e 8f       	std	Y+30, r25	; 0x1e
    1a10:	8d 8f       	std	Y+29, r24	; 0x1d
    1a12:	8d 8d       	ldd	r24, Y+29	; 0x1d
    1a14:	9e 8d       	ldd	r25, Y+30	; 0x1e
    1a16:	01 97       	sbiw	r24, 0x01	; 1
    1a18:	f1 f7       	brne	.-4      	; 0x1a16 <main+0x388>
    1a1a:	9e 8f       	std	Y+30, r25	; 0x1e
    1a1c:	8d 8f       	std	Y+29, r24	; 0x1d
    1a1e:	66 ce       	rjmp	.-820    	; 0x16ec <main+0x5e>
		_delay_ms(100);}
	//////OVERCOMING THE Y JUNCTIONS///////////////
	else if(l<100 && c>130 && r>130){ // White  Black Black
    1a20:	80 91 68 00 	lds	r24, 0x0068
    1a24:	84 36       	cpi	r24, 0x64	; 100
    1a26:	08 f0       	brcs	.+2      	; 0x1a2a <main+0x39c>
    1a28:	83 c0       	rjmp	.+262    	; 0x1b30 <main+0x4a2>
    1a2a:	80 91 69 00 	lds	r24, 0x0069
    1a2e:	83 38       	cpi	r24, 0x83	; 131
    1a30:	08 f4       	brcc	.+2      	; 0x1a34 <main+0x3a6>
    1a32:	7e c0       	rjmp	.+252    	; 0x1b30 <main+0x4a2>
    1a34:	80 91 6a 00 	lds	r24, 0x006A
    1a38:	83 38       	cpi	r24, 0x83	; 131
    1a3a:	08 f4       	brcc	.+2      	; 0x1a3e <main+0x3b0>
    1a3c:	79 c0       	rjmp	.+242    	; 0x1b30 <main+0x4a2>
		soft_left();
    1a3e:	0e 94 45 0a 	call	0x148a	; 0x148a <soft_left>
		velocity(90,90);
    1a42:	8a e5       	ldi	r24, 0x5A	; 90
    1a44:	6a e5       	ldi	r22, 0x5A	; 90
    1a46:	0e 94 a6 0a 	call	0x154c	; 0x154c <velocity>
    1a4a:	80 e0       	ldi	r24, 0x00	; 0
    1a4c:	90 e0       	ldi	r25, 0x00	; 0
    1a4e:	a8 ec       	ldi	r26, 0xC8	; 200
    1a50:	b2 e4       	ldi	r27, 0x42	; 66
    1a52:	89 8f       	std	Y+25, r24	; 0x19
    1a54:	9a 8f       	std	Y+26, r25	; 0x1a
    1a56:	ab 8f       	std	Y+27, r26	; 0x1b
    1a58:	bc 8f       	std	Y+28, r27	; 0x1c
 */
void
_delay_ms(double __ms)
{
	uint16_t __ticks;
	double __tmp = ((F_CPU) / 4e3) * __ms;
    1a5a:	69 8d       	ldd	r22, Y+25	; 0x19
    1a5c:	7a 8d       	ldd	r23, Y+26	; 0x1a
    1a5e:	8b 8d       	ldd	r24, Y+27	; 0x1b
    1a60:	9c 8d       	ldd	r25, Y+28	; 0x1c
    1a62:	26 e6       	ldi	r18, 0x66	; 102
    1a64:	36 e6       	ldi	r19, 0x66	; 102
    1a66:	46 ee       	ldi	r20, 0xE6	; 230
    1a68:	54 e4       	ldi	r21, 0x44	; 68
    1a6a:	0e 94 fc 0f 	call	0x1ff8	; 0x1ff8 <__mulsf3>
    1a6e:	dc 01       	movw	r26, r24
    1a70:	cb 01       	movw	r24, r22
    1a72:	8d 8b       	std	Y+21, r24	; 0x15
    1a74:	9e 8b       	std	Y+22, r25	; 0x16
    1a76:	af 8b       	std	Y+23, r26	; 0x17
    1a78:	b8 8f       	std	Y+24, r27	; 0x18
	if (__tmp < 1.0)
    1a7a:	6d 89       	ldd	r22, Y+21	; 0x15
    1a7c:	7e 89       	ldd	r23, Y+22	; 0x16
    1a7e:	8f 89       	ldd	r24, Y+23	; 0x17
    1a80:	98 8d       	ldd	r25, Y+24	; 0x18
    1a82:	20 e0       	ldi	r18, 0x00	; 0
    1a84:	30 e0       	ldi	r19, 0x00	; 0
    1a86:	40 e8       	ldi	r20, 0x80	; 128
    1a88:	5f e3       	ldi	r21, 0x3F	; 63
    1a8a:	0e 94 56 11 	call	0x22ac	; 0x22ac <__ltsf2>
    1a8e:	88 23       	and	r24, r24
    1a90:	2c f4       	brge	.+10     	; 0x1a9c <main+0x40e>
		__ticks = 1;
    1a92:	81 e0       	ldi	r24, 0x01	; 1
    1a94:	90 e0       	ldi	r25, 0x00	; 0
    1a96:	9c 8b       	std	Y+20, r25	; 0x14
    1a98:	8b 8b       	std	Y+19, r24	; 0x13
    1a9a:	3f c0       	rjmp	.+126    	; 0x1b1a <main+0x48c>
	else if (__tmp > 65535)
    1a9c:	6d 89       	ldd	r22, Y+21	; 0x15
    1a9e:	7e 89       	ldd	r23, Y+22	; 0x16
    1aa0:	8f 89       	ldd	r24, Y+23	; 0x17
    1aa2:	98 8d       	ldd	r25, Y+24	; 0x18
    1aa4:	20 e0       	ldi	r18, 0x00	; 0
    1aa6:	3f ef       	ldi	r19, 0xFF	; 255
    1aa8:	4f e7       	ldi	r20, 0x7F	; 127
    1aaa:	57 e4       	ldi	r21, 0x47	; 71
    1aac:	0e 94 f6 10 	call	0x21ec	; 0x21ec <__gtsf2>
    1ab0:	18 16       	cp	r1, r24
    1ab2:	4c f5       	brge	.+82     	; 0x1b06 <main+0x478>
	{
		//	__ticks = requested delay in 1/10 ms
		__ticks = (uint16_t) (__ms * 10.0);
    1ab4:	69 8d       	ldd	r22, Y+25	; 0x19
    1ab6:	7a 8d       	ldd	r23, Y+26	; 0x1a
    1ab8:	8b 8d       	ldd	r24, Y+27	; 0x1b
    1aba:	9c 8d       	ldd	r25, Y+28	; 0x1c
    1abc:	20 e0       	ldi	r18, 0x00	; 0
    1abe:	30 e0       	ldi	r19, 0x00	; 0
    1ac0:	40 e2       	ldi	r20, 0x20	; 32
    1ac2:	51 e4       	ldi	r21, 0x41	; 65
    1ac4:	0e 94 fc 0f 	call	0x1ff8	; 0x1ff8 <__mulsf3>
    1ac8:	dc 01       	movw	r26, r24
    1aca:	cb 01       	movw	r24, r22
    1acc:	bc 01       	movw	r22, r24
    1ace:	cd 01       	movw	r24, r26
    1ad0:	0e 94 26 0e 	call	0x1c4c	; 0x1c4c <__fixunssfsi>
    1ad4:	dc 01       	movw	r26, r24
    1ad6:	cb 01       	movw	r24, r22
    1ad8:	9c 8b       	std	Y+20, r25	; 0x14
    1ada:	8b 8b       	std	Y+19, r24	; 0x13
    1adc:	0f c0       	rjmp	.+30     	; 0x1afc <main+0x46e>
    1ade:	88 eb       	ldi	r24, 0xB8	; 184
    1ae0:	90 e0       	ldi	r25, 0x00	; 0
    1ae2:	9a 8b       	std	Y+18, r25	; 0x12
    1ae4:	89 8b       	std	Y+17, r24	; 0x11
    1ae6:	89 89       	ldd	r24, Y+17	; 0x11
    1ae8:	9a 89       	ldd	r25, Y+18	; 0x12
    1aea:	01 97       	sbiw	r24, 0x01	; 1
    1aec:	f1 f7       	brne	.-4      	; 0x1aea <main+0x45c>
    1aee:	9a 8b       	std	Y+18, r25	; 0x12
    1af0:	89 8b       	std	Y+17, r24	; 0x11
		while(__ticks)
		{
			// wait 1/10 ms
			_delay_loop_2(((F_CPU) / 4e3) / 10);
			__ticks --;
    1af2:	8b 89       	ldd	r24, Y+19	; 0x13
    1af4:	9c 89       	ldd	r25, Y+20	; 0x14
    1af6:	01 97       	sbiw	r24, 0x01	; 1
    1af8:	9c 8b       	std	Y+20, r25	; 0x14
    1afa:	8b 8b       	std	Y+19, r24	; 0x13
		__ticks = 1;
	else if (__tmp > 65535)
	{
		//	__ticks = requested delay in 1/10 ms
		__ticks = (uint16_t) (__ms * 10.0);
		while(__ticks)
    1afc:	8b 89       	ldd	r24, Y+19	; 0x13
    1afe:	9c 89       	ldd	r25, Y+20	; 0x14
    1b00:	00 97       	sbiw	r24, 0x00	; 0
    1b02:	69 f7       	brne	.-38     	; 0x1ade <main+0x450>
    1b04:	f3 cd       	rjmp	.-1050   	; 0x16ec <main+0x5e>
			__ticks --;
		}
		return;
	}
	else
		__ticks = (uint16_t)__tmp;
    1b06:	6d 89       	ldd	r22, Y+21	; 0x15
    1b08:	7e 89       	ldd	r23, Y+22	; 0x16
    1b0a:	8f 89       	ldd	r24, Y+23	; 0x17
    1b0c:	98 8d       	ldd	r25, Y+24	; 0x18
    1b0e:	0e 94 26 0e 	call	0x1c4c	; 0x1c4c <__fixunssfsi>
    1b12:	dc 01       	movw	r26, r24
    1b14:	cb 01       	movw	r24, r22
    1b16:	9c 8b       	std	Y+20, r25	; 0x14
    1b18:	8b 8b       	std	Y+19, r24	; 0x13
    1b1a:	8b 89       	ldd	r24, Y+19	; 0x13
    1b1c:	9c 89       	ldd	r25, Y+20	; 0x14
    1b1e:	98 8b       	std	Y+16, r25	; 0x10
    1b20:	8f 87       	std	Y+15, r24	; 0x0f
    1b22:	8f 85       	ldd	r24, Y+15	; 0x0f
    1b24:	98 89       	ldd	r25, Y+16	; 0x10
    1b26:	01 97       	sbiw	r24, 0x01	; 1
    1b28:	f1 f7       	brne	.-4      	; 0x1b26 <main+0x498>
    1b2a:	98 8b       	std	Y+16, r25	; 0x10
    1b2c:	8f 87       	std	Y+15, r24	; 0x0f
    1b2e:	de cd       	rjmp	.-1092   	; 0x16ec <main+0x5e>
		_delay_ms(100);
	}
	else if(l>130 && c<130 && r>130){ // Black White Black
    1b30:	80 91 68 00 	lds	r24, 0x0068
    1b34:	83 38       	cpi	r24, 0x83	; 131
    1b36:	08 f4       	brcc	.+2      	; 0x1b3a <main+0x4ac>
    1b38:	83 c0       	rjmp	.+262    	; 0x1c40 <main+0x5b2>
    1b3a:	80 91 69 00 	lds	r24, 0x0069
    1b3e:	82 38       	cpi	r24, 0x82	; 130
    1b40:	08 f0       	brcs	.+2      	; 0x1b44 <main+0x4b6>
    1b42:	7e c0       	rjmp	.+252    	; 0x1c40 <main+0x5b2>
    1b44:	80 91 6a 00 	lds	r24, 0x006A
    1b48:	83 38       	cpi	r24, 0x83	; 131
    1b4a:	08 f4       	brcc	.+2      	; 0x1b4e <main+0x4c0>
    1b4c:	79 c0       	rjmp	.+242    	; 0x1c40 <main+0x5b2>
		soft_left();
    1b4e:	0e 94 45 0a 	call	0x148a	; 0x148a <soft_left>
		velocity(90,90);
    1b52:	8a e5       	ldi	r24, 0x5A	; 90
    1b54:	6a e5       	ldi	r22, 0x5A	; 90
    1b56:	0e 94 a6 0a 	call	0x154c	; 0x154c <velocity>
    1b5a:	80 e0       	ldi	r24, 0x00	; 0
    1b5c:	90 e0       	ldi	r25, 0x00	; 0
    1b5e:	a8 ec       	ldi	r26, 0xC8	; 200
    1b60:	b2 e4       	ldi	r27, 0x42	; 66
    1b62:	8b 87       	std	Y+11, r24	; 0x0b
    1b64:	9c 87       	std	Y+12, r25	; 0x0c
    1b66:	ad 87       	std	Y+13, r26	; 0x0d
    1b68:	be 87       	std	Y+14, r27	; 0x0e
 */
void
_delay_ms(double __ms)
{
	uint16_t __ticks;
	double __tmp = ((F_CPU) / 4e3) * __ms;
    1b6a:	6b 85       	ldd	r22, Y+11	; 0x0b
    1b6c:	7c 85       	ldd	r23, Y+12	; 0x0c
    1b6e:	8d 85       	ldd	r24, Y+13	; 0x0d
    1b70:	9e 85       	ldd	r25, Y+14	; 0x0e
    1b72:	26 e6       	ldi	r18, 0x66	; 102
    1b74:	36 e6       	ldi	r19, 0x66	; 102
    1b76:	46 ee       	ldi	r20, 0xE6	; 230
    1b78:	54 e4       	ldi	r21, 0x44	; 68
    1b7a:	0e 94 fc 0f 	call	0x1ff8	; 0x1ff8 <__mulsf3>
    1b7e:	dc 01       	movw	r26, r24
    1b80:	cb 01       	movw	r24, r22
    1b82:	8f 83       	std	Y+7, r24	; 0x07
    1b84:	98 87       	std	Y+8, r25	; 0x08
    1b86:	a9 87       	std	Y+9, r26	; 0x09
    1b88:	ba 87       	std	Y+10, r27	; 0x0a
	if (__tmp < 1.0)
    1b8a:	6f 81       	ldd	r22, Y+7	; 0x07
    1b8c:	78 85       	ldd	r23, Y+8	; 0x08
    1b8e:	89 85       	ldd	r24, Y+9	; 0x09
    1b90:	9a 85       	ldd	r25, Y+10	; 0x0a
    1b92:	20 e0       	ldi	r18, 0x00	; 0
    1b94:	30 e0       	ldi	r19, 0x00	; 0
    1b96:	40 e8       	ldi	r20, 0x80	; 128
    1b98:	5f e3       	ldi	r21, 0x3F	; 63
    1b9a:	0e 94 56 11 	call	0x22ac	; 0x22ac <__ltsf2>
    1b9e:	88 23       	and	r24, r24
    1ba0:	2c f4       	brge	.+10     	; 0x1bac <main+0x51e>
		__ticks = 1;
    1ba2:	81 e0       	ldi	r24, 0x01	; 1
    1ba4:	90 e0       	ldi	r25, 0x00	; 0
    1ba6:	9e 83       	std	Y+6, r25	; 0x06
    1ba8:	8d 83       	std	Y+5, r24	; 0x05
    1baa:	3f c0       	rjmp	.+126    	; 0x1c2a <main+0x59c>
	else if (__tmp > 65535)
    1bac:	6f 81       	ldd	r22, Y+7	; 0x07
    1bae:	78 85       	ldd	r23, Y+8	; 0x08
    1bb0:	89 85       	ldd	r24, Y+9	; 0x09
    1bb2:	9a 85       	ldd	r25, Y+10	; 0x0a
    1bb4:	20 e0       	ldi	r18, 0x00	; 0
    1bb6:	3f ef       	ldi	r19, 0xFF	; 255
    1bb8:	4f e7       	ldi	r20, 0x7F	; 127
    1bba:	57 e4       	ldi	r21, 0x47	; 71
    1bbc:	0e 94 f6 10 	call	0x21ec	; 0x21ec <__gtsf2>
    1bc0:	18 16       	cp	r1, r24
    1bc2:	4c f5       	brge	.+82     	; 0x1c16 <main+0x588>
	{
		//	__ticks = requested delay in 1/10 ms
		__ticks = (uint16_t) (__ms * 10.0);
    1bc4:	6b 85       	ldd	r22, Y+11	; 0x0b
    1bc6:	7c 85       	ldd	r23, Y+12	; 0x0c
    1bc8:	8d 85       	ldd	r24, Y+13	; 0x0d
    1bca:	9e 85       	ldd	r25, Y+14	; 0x0e
    1bcc:	20 e0       	ldi	r18, 0x00	; 0
    1bce:	30 e0       	ldi	r19, 0x00	; 0
    1bd0:	40 e2       	ldi	r20, 0x20	; 32
    1bd2:	51 e4       	ldi	r21, 0x41	; 65
    1bd4:	0e 94 fc 0f 	call	0x1ff8	; 0x1ff8 <__mulsf3>
    1bd8:	dc 01       	movw	r26, r24
    1bda:	cb 01       	movw	r24, r22
    1bdc:	bc 01       	movw	r22, r24
    1bde:	cd 01       	movw	r24, r26
    1be0:	0e 94 26 0e 	call	0x1c4c	; 0x1c4c <__fixunssfsi>
    1be4:	dc 01       	movw	r26, r24
    1be6:	cb 01       	movw	r24, r22
    1be8:	9e 83       	std	Y+6, r25	; 0x06
    1bea:	8d 83       	std	Y+5, r24	; 0x05
    1bec:	0f c0       	rjmp	.+30     	; 0x1c0c <main+0x57e>
    1bee:	88 eb       	ldi	r24, 0xB8	; 184
    1bf0:	90 e0       	ldi	r25, 0x00	; 0
    1bf2:	9c 83       	std	Y+4, r25	; 0x04
    1bf4:	8b 83       	std	Y+3, r24	; 0x03
    1bf6:	8b 81       	ldd	r24, Y+3	; 0x03
    1bf8:	9c 81       	ldd	r25, Y+4	; 0x04
    1bfa:	01 97       	sbiw	r24, 0x01	; 1
    1bfc:	f1 f7       	brne	.-4      	; 0x1bfa <main+0x56c>
    1bfe:	9c 83       	std	Y+4, r25	; 0x04
    1c00:	8b 83       	std	Y+3, r24	; 0x03
		while(__ticks)
		{
			// wait 1/10 ms
			_delay_loop_2(((F_CPU) / 4e3) / 10);
			__ticks --;
    1c02:	8d 81       	ldd	r24, Y+5	; 0x05
    1c04:	9e 81       	ldd	r25, Y+6	; 0x06
    1c06:	01 97       	sbiw	r24, 0x01	; 1
    1c08:	9e 83       	std	Y+6, r25	; 0x06
    1c0a:	8d 83       	std	Y+5, r24	; 0x05
		__ticks = 1;
	else if (__tmp > 65535)
	{
		//	__ticks = requested delay in 1/10 ms
		__ticks = (uint16_t) (__ms * 10.0);
		while(__ticks)
    1c0c:	8d 81       	ldd	r24, Y+5	; 0x05
    1c0e:	9e 81       	ldd	r25, Y+6	; 0x06
    1c10:	00 97       	sbiw	r24, 0x00	; 0
    1c12:	69 f7       	brne	.-38     	; 0x1bee <main+0x560>
    1c14:	6b cd       	rjmp	.-1322   	; 0x16ec <main+0x5e>
			__ticks --;
		}
		return;
	}
	else
		__ticks = (uint16_t)__tmp;
    1c16:	6f 81       	ldd	r22, Y+7	; 0x07
    1c18:	78 85       	ldd	r23, Y+8	; 0x08
    1c1a:	89 85       	ldd	r24, Y+9	; 0x09
    1c1c:	9a 85       	ldd	r25, Y+10	; 0x0a
    1c1e:	0e 94 26 0e 	call	0x1c4c	; 0x1c4c <__fixunssfsi>
    1c22:	dc 01       	movw	r26, r24
    1c24:	cb 01       	movw	r24, r22
    1c26:	9e 83       	std	Y+6, r25	; 0x06
    1c28:	8d 83       	std	Y+5, r24	; 0x05
    1c2a:	8d 81       	ldd	r24, Y+5	; 0x05
    1c2c:	9e 81       	ldd	r25, Y+6	; 0x06
    1c2e:	9a 83       	std	Y+2, r25	; 0x02
    1c30:	89 83       	std	Y+1, r24	; 0x01
    1c32:	89 81       	ldd	r24, Y+1	; 0x01
    1c34:	9a 81       	ldd	r25, Y+2	; 0x02
    1c36:	01 97       	sbiw	r24, 0x01	; 1
    1c38:	f1 f7       	brne	.-4      	; 0x1c36 <main+0x5a8>
    1c3a:	9a 83       	std	Y+2, r25	; 0x02
    1c3c:	89 83       	std	Y+1, r24	; 0x01
    1c3e:	56 cd       	rjmp	.-1364   	; 0x16ec <main+0x5e>
		_delay_ms(100);		
	}	
	else {velocity(lm,rm);}
    1c40:	8d a5       	ldd	r24, Y+45	; 0x2d
    1c42:	9b a5       	ldd	r25, Y+43	; 0x2b
    1c44:	69 2f       	mov	r22, r25
    1c46:	0e 94 a6 0a 	call	0x154c	; 0x154c <velocity>
    1c4a:	50 cd       	rjmp	.-1376   	; 0x16ec <main+0x5e>

00001c4c <__fixunssfsi>:
    1c4c:	ef 92       	push	r14
    1c4e:	ff 92       	push	r15
    1c50:	0f 93       	push	r16
    1c52:	1f 93       	push	r17
    1c54:	7b 01       	movw	r14, r22
    1c56:	8c 01       	movw	r16, r24
    1c58:	20 e0       	ldi	r18, 0x00	; 0
    1c5a:	30 e0       	ldi	r19, 0x00	; 0
    1c5c:	40 e0       	ldi	r20, 0x00	; 0
    1c5e:	5f e4       	ldi	r21, 0x4F	; 79
    1c60:	0e 94 26 11 	call	0x224c	; 0x224c <__gesf2>
    1c64:	88 23       	and	r24, r24
    1c66:	8c f0       	brlt	.+34     	; 0x1c8a <__fixunssfsi+0x3e>
    1c68:	c8 01       	movw	r24, r16
    1c6a:	b7 01       	movw	r22, r14
    1c6c:	20 e0       	ldi	r18, 0x00	; 0
    1c6e:	30 e0       	ldi	r19, 0x00	; 0
    1c70:	40 e0       	ldi	r20, 0x00	; 0
    1c72:	5f e4       	ldi	r21, 0x4F	; 79
    1c74:	0e 94 9e 0f 	call	0x1f3c	; 0x1f3c <__subsf3>
    1c78:	0e 94 86 11 	call	0x230c	; 0x230c <__fixsfsi>
    1c7c:	9b 01       	movw	r18, r22
    1c7e:	ac 01       	movw	r20, r24
    1c80:	20 50       	subi	r18, 0x00	; 0
    1c82:	30 40       	sbci	r19, 0x00	; 0
    1c84:	40 40       	sbci	r20, 0x00	; 0
    1c86:	50 48       	sbci	r21, 0x80	; 128
    1c88:	06 c0       	rjmp	.+12     	; 0x1c96 <__fixunssfsi+0x4a>
    1c8a:	c8 01       	movw	r24, r16
    1c8c:	b7 01       	movw	r22, r14
    1c8e:	0e 94 86 11 	call	0x230c	; 0x230c <__fixsfsi>
    1c92:	9b 01       	movw	r18, r22
    1c94:	ac 01       	movw	r20, r24
    1c96:	b9 01       	movw	r22, r18
    1c98:	ca 01       	movw	r24, r20
    1c9a:	1f 91       	pop	r17
    1c9c:	0f 91       	pop	r16
    1c9e:	ff 90       	pop	r15
    1ca0:	ef 90       	pop	r14
    1ca2:	08 95       	ret

00001ca4 <_fpadd_parts>:
    1ca4:	a0 e0       	ldi	r26, 0x00	; 0
    1ca6:	b0 e0       	ldi	r27, 0x00	; 0
    1ca8:	e8 e5       	ldi	r30, 0x58	; 88
    1caa:	fe e0       	ldi	r31, 0x0E	; 14
    1cac:	0c 94 94 13 	jmp	0x2728	; 0x2728 <__prologue_saves__>
    1cb0:	dc 01       	movw	r26, r24
    1cb2:	2b 01       	movw	r4, r22
    1cb4:	fa 01       	movw	r30, r20
    1cb6:	9c 91       	ld	r25, X
    1cb8:	92 30       	cpi	r25, 0x02	; 2
    1cba:	08 f4       	brcc	.+2      	; 0x1cbe <_fpadd_parts+0x1a>
    1cbc:	39 c1       	rjmp	.+626    	; 0x1f30 <_fpadd_parts+0x28c>
    1cbe:	eb 01       	movw	r28, r22
    1cc0:	88 81       	ld	r24, Y
    1cc2:	82 30       	cpi	r24, 0x02	; 2
    1cc4:	08 f4       	brcc	.+2      	; 0x1cc8 <_fpadd_parts+0x24>
    1cc6:	33 c1       	rjmp	.+614    	; 0x1f2e <_fpadd_parts+0x28a>
    1cc8:	94 30       	cpi	r25, 0x04	; 4
    1cca:	69 f4       	brne	.+26     	; 0x1ce6 <_fpadd_parts+0x42>
    1ccc:	84 30       	cpi	r24, 0x04	; 4
    1cce:	09 f0       	breq	.+2      	; 0x1cd2 <_fpadd_parts+0x2e>
    1cd0:	2f c1       	rjmp	.+606    	; 0x1f30 <_fpadd_parts+0x28c>
    1cd2:	11 96       	adiw	r26, 0x01	; 1
    1cd4:	9c 91       	ld	r25, X
    1cd6:	11 97       	sbiw	r26, 0x01	; 1
    1cd8:	89 81       	ldd	r24, Y+1	; 0x01
    1cda:	98 17       	cp	r25, r24
    1cdc:	09 f4       	brne	.+2      	; 0x1ce0 <_fpadd_parts+0x3c>
    1cde:	28 c1       	rjmp	.+592    	; 0x1f30 <_fpadd_parts+0x28c>
    1ce0:	a0 e6       	ldi	r26, 0x60	; 96
    1ce2:	b0 e0       	ldi	r27, 0x00	; 0
    1ce4:	25 c1       	rjmp	.+586    	; 0x1f30 <_fpadd_parts+0x28c>
    1ce6:	84 30       	cpi	r24, 0x04	; 4
    1ce8:	09 f4       	brne	.+2      	; 0x1cec <_fpadd_parts+0x48>
    1cea:	21 c1       	rjmp	.+578    	; 0x1f2e <_fpadd_parts+0x28a>
    1cec:	82 30       	cpi	r24, 0x02	; 2
    1cee:	a9 f4       	brne	.+42     	; 0x1d1a <_fpadd_parts+0x76>
    1cf0:	92 30       	cpi	r25, 0x02	; 2
    1cf2:	09 f0       	breq	.+2      	; 0x1cf6 <_fpadd_parts+0x52>
    1cf4:	1d c1       	rjmp	.+570    	; 0x1f30 <_fpadd_parts+0x28c>
    1cf6:	9a 01       	movw	r18, r20
    1cf8:	ad 01       	movw	r20, r26
    1cfa:	88 e0       	ldi	r24, 0x08	; 8
    1cfc:	ea 01       	movw	r28, r20
    1cfe:	09 90       	ld	r0, Y+
    1d00:	ae 01       	movw	r20, r28
    1d02:	e9 01       	movw	r28, r18
    1d04:	09 92       	st	Y+, r0
    1d06:	9e 01       	movw	r18, r28
    1d08:	81 50       	subi	r24, 0x01	; 1
    1d0a:	c1 f7       	brne	.-16     	; 0x1cfc <_fpadd_parts+0x58>
    1d0c:	e2 01       	movw	r28, r4
    1d0e:	89 81       	ldd	r24, Y+1	; 0x01
    1d10:	11 96       	adiw	r26, 0x01	; 1
    1d12:	9c 91       	ld	r25, X
    1d14:	89 23       	and	r24, r25
    1d16:	81 83       	std	Z+1, r24	; 0x01
    1d18:	08 c1       	rjmp	.+528    	; 0x1f2a <_fpadd_parts+0x286>
    1d1a:	92 30       	cpi	r25, 0x02	; 2
    1d1c:	09 f4       	brne	.+2      	; 0x1d20 <_fpadd_parts+0x7c>
    1d1e:	07 c1       	rjmp	.+526    	; 0x1f2e <_fpadd_parts+0x28a>
    1d20:	12 96       	adiw	r26, 0x02	; 2
    1d22:	2d 90       	ld	r2, X+
    1d24:	3c 90       	ld	r3, X
    1d26:	13 97       	sbiw	r26, 0x03	; 3
    1d28:	eb 01       	movw	r28, r22
    1d2a:	8a 81       	ldd	r24, Y+2	; 0x02
    1d2c:	9b 81       	ldd	r25, Y+3	; 0x03
    1d2e:	14 96       	adiw	r26, 0x04	; 4
    1d30:	ad 90       	ld	r10, X+
    1d32:	bd 90       	ld	r11, X+
    1d34:	cd 90       	ld	r12, X+
    1d36:	dc 90       	ld	r13, X
    1d38:	17 97       	sbiw	r26, 0x07	; 7
    1d3a:	ec 80       	ldd	r14, Y+4	; 0x04
    1d3c:	fd 80       	ldd	r15, Y+5	; 0x05
    1d3e:	0e 81       	ldd	r16, Y+6	; 0x06
    1d40:	1f 81       	ldd	r17, Y+7	; 0x07
    1d42:	91 01       	movw	r18, r2
    1d44:	28 1b       	sub	r18, r24
    1d46:	39 0b       	sbc	r19, r25
    1d48:	b9 01       	movw	r22, r18
    1d4a:	37 ff       	sbrs	r19, 7
    1d4c:	04 c0       	rjmp	.+8      	; 0x1d56 <_fpadd_parts+0xb2>
    1d4e:	66 27       	eor	r22, r22
    1d50:	77 27       	eor	r23, r23
    1d52:	62 1b       	sub	r22, r18
    1d54:	73 0b       	sbc	r23, r19
    1d56:	60 32       	cpi	r22, 0x20	; 32
    1d58:	71 05       	cpc	r23, r1
    1d5a:	0c f0       	brlt	.+2      	; 0x1d5e <_fpadd_parts+0xba>
    1d5c:	61 c0       	rjmp	.+194    	; 0x1e20 <_fpadd_parts+0x17c>
    1d5e:	12 16       	cp	r1, r18
    1d60:	13 06       	cpc	r1, r19
    1d62:	6c f5       	brge	.+90     	; 0x1dbe <_fpadd_parts+0x11a>
    1d64:	37 01       	movw	r6, r14
    1d66:	48 01       	movw	r8, r16
    1d68:	06 2e       	mov	r0, r22
    1d6a:	04 c0       	rjmp	.+8      	; 0x1d74 <_fpadd_parts+0xd0>
    1d6c:	96 94       	lsr	r9
    1d6e:	87 94       	ror	r8
    1d70:	77 94       	ror	r7
    1d72:	67 94       	ror	r6
    1d74:	0a 94       	dec	r0
    1d76:	d2 f7       	brpl	.-12     	; 0x1d6c <_fpadd_parts+0xc8>
    1d78:	21 e0       	ldi	r18, 0x01	; 1
    1d7a:	30 e0       	ldi	r19, 0x00	; 0
    1d7c:	40 e0       	ldi	r20, 0x00	; 0
    1d7e:	50 e0       	ldi	r21, 0x00	; 0
    1d80:	04 c0       	rjmp	.+8      	; 0x1d8a <_fpadd_parts+0xe6>
    1d82:	22 0f       	add	r18, r18
    1d84:	33 1f       	adc	r19, r19
    1d86:	44 1f       	adc	r20, r20
    1d88:	55 1f       	adc	r21, r21
    1d8a:	6a 95       	dec	r22
    1d8c:	d2 f7       	brpl	.-12     	; 0x1d82 <_fpadd_parts+0xde>
    1d8e:	21 50       	subi	r18, 0x01	; 1
    1d90:	30 40       	sbci	r19, 0x00	; 0
    1d92:	40 40       	sbci	r20, 0x00	; 0
    1d94:	50 40       	sbci	r21, 0x00	; 0
    1d96:	2e 21       	and	r18, r14
    1d98:	3f 21       	and	r19, r15
    1d9a:	40 23       	and	r20, r16
    1d9c:	51 23       	and	r21, r17
    1d9e:	21 15       	cp	r18, r1
    1da0:	31 05       	cpc	r19, r1
    1da2:	41 05       	cpc	r20, r1
    1da4:	51 05       	cpc	r21, r1
    1da6:	21 f0       	breq	.+8      	; 0x1db0 <_fpadd_parts+0x10c>
    1da8:	21 e0       	ldi	r18, 0x01	; 1
    1daa:	30 e0       	ldi	r19, 0x00	; 0
    1dac:	40 e0       	ldi	r20, 0x00	; 0
    1dae:	50 e0       	ldi	r21, 0x00	; 0
    1db0:	79 01       	movw	r14, r18
    1db2:	8a 01       	movw	r16, r20
    1db4:	e6 28       	or	r14, r6
    1db6:	f7 28       	or	r15, r7
    1db8:	08 29       	or	r16, r8
    1dba:	19 29       	or	r17, r9
    1dbc:	3c c0       	rjmp	.+120    	; 0x1e36 <_fpadd_parts+0x192>
    1dbe:	23 2b       	or	r18, r19
    1dc0:	d1 f1       	breq	.+116    	; 0x1e36 <_fpadd_parts+0x192>
    1dc2:	26 0e       	add	r2, r22
    1dc4:	37 1e       	adc	r3, r23
    1dc6:	35 01       	movw	r6, r10
    1dc8:	46 01       	movw	r8, r12
    1dca:	06 2e       	mov	r0, r22
    1dcc:	04 c0       	rjmp	.+8      	; 0x1dd6 <_fpadd_parts+0x132>
    1dce:	96 94       	lsr	r9
    1dd0:	87 94       	ror	r8
    1dd2:	77 94       	ror	r7
    1dd4:	67 94       	ror	r6
    1dd6:	0a 94       	dec	r0
    1dd8:	d2 f7       	brpl	.-12     	; 0x1dce <_fpadd_parts+0x12a>
    1dda:	21 e0       	ldi	r18, 0x01	; 1
    1ddc:	30 e0       	ldi	r19, 0x00	; 0
    1dde:	40 e0       	ldi	r20, 0x00	; 0
    1de0:	50 e0       	ldi	r21, 0x00	; 0
    1de2:	04 c0       	rjmp	.+8      	; 0x1dec <_fpadd_parts+0x148>
    1de4:	22 0f       	add	r18, r18
    1de6:	33 1f       	adc	r19, r19
    1de8:	44 1f       	adc	r20, r20
    1dea:	55 1f       	adc	r21, r21
    1dec:	6a 95       	dec	r22
    1dee:	d2 f7       	brpl	.-12     	; 0x1de4 <_fpadd_parts+0x140>
    1df0:	21 50       	subi	r18, 0x01	; 1
    1df2:	30 40       	sbci	r19, 0x00	; 0
    1df4:	40 40       	sbci	r20, 0x00	; 0
    1df6:	50 40       	sbci	r21, 0x00	; 0
    1df8:	2a 21       	and	r18, r10
    1dfa:	3b 21       	and	r19, r11
    1dfc:	4c 21       	and	r20, r12
    1dfe:	5d 21       	and	r21, r13
    1e00:	21 15       	cp	r18, r1
    1e02:	31 05       	cpc	r19, r1
    1e04:	41 05       	cpc	r20, r1
    1e06:	51 05       	cpc	r21, r1
    1e08:	21 f0       	breq	.+8      	; 0x1e12 <_fpadd_parts+0x16e>
    1e0a:	21 e0       	ldi	r18, 0x01	; 1
    1e0c:	30 e0       	ldi	r19, 0x00	; 0
    1e0e:	40 e0       	ldi	r20, 0x00	; 0
    1e10:	50 e0       	ldi	r21, 0x00	; 0
    1e12:	59 01       	movw	r10, r18
    1e14:	6a 01       	movw	r12, r20
    1e16:	a6 28       	or	r10, r6
    1e18:	b7 28       	or	r11, r7
    1e1a:	c8 28       	or	r12, r8
    1e1c:	d9 28       	or	r13, r9
    1e1e:	0b c0       	rjmp	.+22     	; 0x1e36 <_fpadd_parts+0x192>
    1e20:	82 15       	cp	r24, r2
    1e22:	93 05       	cpc	r25, r3
    1e24:	2c f0       	brlt	.+10     	; 0x1e30 <_fpadd_parts+0x18c>
    1e26:	1c 01       	movw	r2, r24
    1e28:	aa 24       	eor	r10, r10
    1e2a:	bb 24       	eor	r11, r11
    1e2c:	65 01       	movw	r12, r10
    1e2e:	03 c0       	rjmp	.+6      	; 0x1e36 <_fpadd_parts+0x192>
    1e30:	ee 24       	eor	r14, r14
    1e32:	ff 24       	eor	r15, r15
    1e34:	87 01       	movw	r16, r14
    1e36:	11 96       	adiw	r26, 0x01	; 1
    1e38:	9c 91       	ld	r25, X
    1e3a:	d2 01       	movw	r26, r4
    1e3c:	11 96       	adiw	r26, 0x01	; 1
    1e3e:	8c 91       	ld	r24, X
    1e40:	98 17       	cp	r25, r24
    1e42:	09 f4       	brne	.+2      	; 0x1e46 <_fpadd_parts+0x1a2>
    1e44:	45 c0       	rjmp	.+138    	; 0x1ed0 <_fpadd_parts+0x22c>
    1e46:	99 23       	and	r25, r25
    1e48:	39 f0       	breq	.+14     	; 0x1e58 <_fpadd_parts+0x1b4>
    1e4a:	a8 01       	movw	r20, r16
    1e4c:	97 01       	movw	r18, r14
    1e4e:	2a 19       	sub	r18, r10
    1e50:	3b 09       	sbc	r19, r11
    1e52:	4c 09       	sbc	r20, r12
    1e54:	5d 09       	sbc	r21, r13
    1e56:	06 c0       	rjmp	.+12     	; 0x1e64 <_fpadd_parts+0x1c0>
    1e58:	a6 01       	movw	r20, r12
    1e5a:	95 01       	movw	r18, r10
    1e5c:	2e 19       	sub	r18, r14
    1e5e:	3f 09       	sbc	r19, r15
    1e60:	40 0b       	sbc	r20, r16
    1e62:	51 0b       	sbc	r21, r17
    1e64:	57 fd       	sbrc	r21, 7
    1e66:	08 c0       	rjmp	.+16     	; 0x1e78 <_fpadd_parts+0x1d4>
    1e68:	11 82       	std	Z+1, r1	; 0x01
    1e6a:	33 82       	std	Z+3, r3	; 0x03
    1e6c:	22 82       	std	Z+2, r2	; 0x02
    1e6e:	24 83       	std	Z+4, r18	; 0x04
    1e70:	35 83       	std	Z+5, r19	; 0x05
    1e72:	46 83       	std	Z+6, r20	; 0x06
    1e74:	57 83       	std	Z+7, r21	; 0x07
    1e76:	1d c0       	rjmp	.+58     	; 0x1eb2 <_fpadd_parts+0x20e>
    1e78:	81 e0       	ldi	r24, 0x01	; 1
    1e7a:	81 83       	std	Z+1, r24	; 0x01
    1e7c:	33 82       	std	Z+3, r3	; 0x03
    1e7e:	22 82       	std	Z+2, r2	; 0x02
    1e80:	88 27       	eor	r24, r24
    1e82:	99 27       	eor	r25, r25
    1e84:	dc 01       	movw	r26, r24
    1e86:	82 1b       	sub	r24, r18
    1e88:	93 0b       	sbc	r25, r19
    1e8a:	a4 0b       	sbc	r26, r20
    1e8c:	b5 0b       	sbc	r27, r21
    1e8e:	84 83       	std	Z+4, r24	; 0x04
    1e90:	95 83       	std	Z+5, r25	; 0x05
    1e92:	a6 83       	std	Z+6, r26	; 0x06
    1e94:	b7 83       	std	Z+7, r27	; 0x07
    1e96:	0d c0       	rjmp	.+26     	; 0x1eb2 <_fpadd_parts+0x20e>
    1e98:	22 0f       	add	r18, r18
    1e9a:	33 1f       	adc	r19, r19
    1e9c:	44 1f       	adc	r20, r20
    1e9e:	55 1f       	adc	r21, r21
    1ea0:	24 83       	std	Z+4, r18	; 0x04
    1ea2:	35 83       	std	Z+5, r19	; 0x05
    1ea4:	46 83       	std	Z+6, r20	; 0x06
    1ea6:	57 83       	std	Z+7, r21	; 0x07
    1ea8:	82 81       	ldd	r24, Z+2	; 0x02
    1eaa:	93 81       	ldd	r25, Z+3	; 0x03
    1eac:	01 97       	sbiw	r24, 0x01	; 1
    1eae:	93 83       	std	Z+3, r25	; 0x03
    1eb0:	82 83       	std	Z+2, r24	; 0x02
    1eb2:	24 81       	ldd	r18, Z+4	; 0x04
    1eb4:	35 81       	ldd	r19, Z+5	; 0x05
    1eb6:	46 81       	ldd	r20, Z+6	; 0x06
    1eb8:	57 81       	ldd	r21, Z+7	; 0x07
    1eba:	da 01       	movw	r26, r20
    1ebc:	c9 01       	movw	r24, r18
    1ebe:	01 97       	sbiw	r24, 0x01	; 1
    1ec0:	a1 09       	sbc	r26, r1
    1ec2:	b1 09       	sbc	r27, r1
    1ec4:	8f 5f       	subi	r24, 0xFF	; 255
    1ec6:	9f 4f       	sbci	r25, 0xFF	; 255
    1ec8:	af 4f       	sbci	r26, 0xFF	; 255
    1eca:	bf 43       	sbci	r27, 0x3F	; 63
    1ecc:	28 f3       	brcs	.-54     	; 0x1e98 <_fpadd_parts+0x1f4>
    1ece:	0b c0       	rjmp	.+22     	; 0x1ee6 <_fpadd_parts+0x242>
    1ed0:	91 83       	std	Z+1, r25	; 0x01
    1ed2:	33 82       	std	Z+3, r3	; 0x03
    1ed4:	22 82       	std	Z+2, r2	; 0x02
    1ed6:	ea 0c       	add	r14, r10
    1ed8:	fb 1c       	adc	r15, r11
    1eda:	0c 1d       	adc	r16, r12
    1edc:	1d 1d       	adc	r17, r13
    1ede:	e4 82       	std	Z+4, r14	; 0x04
    1ee0:	f5 82       	std	Z+5, r15	; 0x05
    1ee2:	06 83       	std	Z+6, r16	; 0x06
    1ee4:	17 83       	std	Z+7, r17	; 0x07
    1ee6:	83 e0       	ldi	r24, 0x03	; 3
    1ee8:	80 83       	st	Z, r24
    1eea:	24 81       	ldd	r18, Z+4	; 0x04
    1eec:	35 81       	ldd	r19, Z+5	; 0x05
    1eee:	46 81       	ldd	r20, Z+6	; 0x06
    1ef0:	57 81       	ldd	r21, Z+7	; 0x07
    1ef2:	57 ff       	sbrs	r21, 7
    1ef4:	1a c0       	rjmp	.+52     	; 0x1f2a <_fpadd_parts+0x286>
    1ef6:	c9 01       	movw	r24, r18
    1ef8:	aa 27       	eor	r26, r26
    1efa:	97 fd       	sbrc	r25, 7
    1efc:	a0 95       	com	r26
    1efe:	ba 2f       	mov	r27, r26
    1f00:	81 70       	andi	r24, 0x01	; 1
    1f02:	90 70       	andi	r25, 0x00	; 0
    1f04:	a0 70       	andi	r26, 0x00	; 0
    1f06:	b0 70       	andi	r27, 0x00	; 0
    1f08:	56 95       	lsr	r21
    1f0a:	47 95       	ror	r20
    1f0c:	37 95       	ror	r19
    1f0e:	27 95       	ror	r18
    1f10:	82 2b       	or	r24, r18
    1f12:	93 2b       	or	r25, r19
    1f14:	a4 2b       	or	r26, r20
    1f16:	b5 2b       	or	r27, r21
    1f18:	84 83       	std	Z+4, r24	; 0x04
    1f1a:	95 83       	std	Z+5, r25	; 0x05
    1f1c:	a6 83       	std	Z+6, r26	; 0x06
    1f1e:	b7 83       	std	Z+7, r27	; 0x07
    1f20:	82 81       	ldd	r24, Z+2	; 0x02
    1f22:	93 81       	ldd	r25, Z+3	; 0x03
    1f24:	01 96       	adiw	r24, 0x01	; 1
    1f26:	93 83       	std	Z+3, r25	; 0x03
    1f28:	82 83       	std	Z+2, r24	; 0x02
    1f2a:	df 01       	movw	r26, r30
    1f2c:	01 c0       	rjmp	.+2      	; 0x1f30 <_fpadd_parts+0x28c>
    1f2e:	d2 01       	movw	r26, r4
    1f30:	cd 01       	movw	r24, r26
    1f32:	cd b7       	in	r28, 0x3d	; 61
    1f34:	de b7       	in	r29, 0x3e	; 62
    1f36:	e2 e1       	ldi	r30, 0x12	; 18
    1f38:	0c 94 b0 13 	jmp	0x2760	; 0x2760 <__epilogue_restores__>

00001f3c <__subsf3>:
    1f3c:	a0 e2       	ldi	r26, 0x20	; 32
    1f3e:	b0 e0       	ldi	r27, 0x00	; 0
    1f40:	e4 ea       	ldi	r30, 0xA4	; 164
    1f42:	ff e0       	ldi	r31, 0x0F	; 15
    1f44:	0c 94 a0 13 	jmp	0x2740	; 0x2740 <__prologue_saves__+0x18>
    1f48:	69 83       	std	Y+1, r22	; 0x01
    1f4a:	7a 83       	std	Y+2, r23	; 0x02
    1f4c:	8b 83       	std	Y+3, r24	; 0x03
    1f4e:	9c 83       	std	Y+4, r25	; 0x04
    1f50:	2d 83       	std	Y+5, r18	; 0x05
    1f52:	3e 83       	std	Y+6, r19	; 0x06
    1f54:	4f 83       	std	Y+7, r20	; 0x07
    1f56:	58 87       	std	Y+8, r21	; 0x08
    1f58:	e9 e0       	ldi	r30, 0x09	; 9
    1f5a:	ee 2e       	mov	r14, r30
    1f5c:	f1 2c       	mov	r15, r1
    1f5e:	ec 0e       	add	r14, r28
    1f60:	fd 1e       	adc	r15, r29
    1f62:	ce 01       	movw	r24, r28
    1f64:	01 96       	adiw	r24, 0x01	; 1
    1f66:	b7 01       	movw	r22, r14
    1f68:	0e 94 af 12 	call	0x255e	; 0x255e <__unpack_f>
    1f6c:	8e 01       	movw	r16, r28
    1f6e:	0f 5e       	subi	r16, 0xEF	; 239
    1f70:	1f 4f       	sbci	r17, 0xFF	; 255
    1f72:	ce 01       	movw	r24, r28
    1f74:	05 96       	adiw	r24, 0x05	; 5
    1f76:	b8 01       	movw	r22, r16
    1f78:	0e 94 af 12 	call	0x255e	; 0x255e <__unpack_f>
    1f7c:	8a 89       	ldd	r24, Y+18	; 0x12
    1f7e:	91 e0       	ldi	r25, 0x01	; 1
    1f80:	89 27       	eor	r24, r25
    1f82:	8a 8b       	std	Y+18, r24	; 0x12
    1f84:	c7 01       	movw	r24, r14
    1f86:	b8 01       	movw	r22, r16
    1f88:	ae 01       	movw	r20, r28
    1f8a:	47 5e       	subi	r20, 0xE7	; 231
    1f8c:	5f 4f       	sbci	r21, 0xFF	; 255
    1f8e:	0e 94 52 0e 	call	0x1ca4	; 0x1ca4 <_fpadd_parts>
    1f92:	0e 94 da 11 	call	0x23b4	; 0x23b4 <__pack_f>
    1f96:	a0 96       	adiw	r28, 0x20	; 32
    1f98:	e6 e0       	ldi	r30, 0x06	; 6
    1f9a:	0c 94 bc 13 	jmp	0x2778	; 0x2778 <__epilogue_restores__+0x18>

00001f9e <__addsf3>:
    1f9e:	a0 e2       	ldi	r26, 0x20	; 32
    1fa0:	b0 e0       	ldi	r27, 0x00	; 0
    1fa2:	e5 ed       	ldi	r30, 0xD5	; 213
    1fa4:	ff e0       	ldi	r31, 0x0F	; 15
    1fa6:	0c 94 a0 13 	jmp	0x2740	; 0x2740 <__prologue_saves__+0x18>
    1faa:	69 83       	std	Y+1, r22	; 0x01
    1fac:	7a 83       	std	Y+2, r23	; 0x02
    1fae:	8b 83       	std	Y+3, r24	; 0x03
    1fb0:	9c 83       	std	Y+4, r25	; 0x04
    1fb2:	2d 83       	std	Y+5, r18	; 0x05
    1fb4:	3e 83       	std	Y+6, r19	; 0x06
    1fb6:	4f 83       	std	Y+7, r20	; 0x07
    1fb8:	58 87       	std	Y+8, r21	; 0x08
    1fba:	f9 e0       	ldi	r31, 0x09	; 9
    1fbc:	ef 2e       	mov	r14, r31
    1fbe:	f1 2c       	mov	r15, r1
    1fc0:	ec 0e       	add	r14, r28
    1fc2:	fd 1e       	adc	r15, r29
    1fc4:	ce 01       	movw	r24, r28
    1fc6:	01 96       	adiw	r24, 0x01	; 1
    1fc8:	b7 01       	movw	r22, r14
    1fca:	0e 94 af 12 	call	0x255e	; 0x255e <__unpack_f>
    1fce:	8e 01       	movw	r16, r28
    1fd0:	0f 5e       	subi	r16, 0xEF	; 239
    1fd2:	1f 4f       	sbci	r17, 0xFF	; 255
    1fd4:	ce 01       	movw	r24, r28
    1fd6:	05 96       	adiw	r24, 0x05	; 5
    1fd8:	b8 01       	movw	r22, r16
    1fda:	0e 94 af 12 	call	0x255e	; 0x255e <__unpack_f>
    1fde:	c7 01       	movw	r24, r14
    1fe0:	b8 01       	movw	r22, r16
    1fe2:	ae 01       	movw	r20, r28
    1fe4:	47 5e       	subi	r20, 0xE7	; 231
    1fe6:	5f 4f       	sbci	r21, 0xFF	; 255
    1fe8:	0e 94 52 0e 	call	0x1ca4	; 0x1ca4 <_fpadd_parts>
    1fec:	0e 94 da 11 	call	0x23b4	; 0x23b4 <__pack_f>
    1ff0:	a0 96       	adiw	r28, 0x20	; 32
    1ff2:	e6 e0       	ldi	r30, 0x06	; 6
    1ff4:	0c 94 bc 13 	jmp	0x2778	; 0x2778 <__epilogue_restores__+0x18>

00001ff8 <__mulsf3>:
    1ff8:	a0 e2       	ldi	r26, 0x20	; 32
    1ffa:	b0 e0       	ldi	r27, 0x00	; 0
    1ffc:	e2 e0       	ldi	r30, 0x02	; 2
    1ffe:	f0 e1       	ldi	r31, 0x10	; 16
    2000:	0c 94 94 13 	jmp	0x2728	; 0x2728 <__prologue_saves__>
    2004:	69 83       	std	Y+1, r22	; 0x01
    2006:	7a 83       	std	Y+2, r23	; 0x02
    2008:	8b 83       	std	Y+3, r24	; 0x03
    200a:	9c 83       	std	Y+4, r25	; 0x04
    200c:	2d 83       	std	Y+5, r18	; 0x05
    200e:	3e 83       	std	Y+6, r19	; 0x06
    2010:	4f 83       	std	Y+7, r20	; 0x07
    2012:	58 87       	std	Y+8, r21	; 0x08
    2014:	ce 01       	movw	r24, r28
    2016:	01 96       	adiw	r24, 0x01	; 1
    2018:	be 01       	movw	r22, r28
    201a:	67 5f       	subi	r22, 0xF7	; 247
    201c:	7f 4f       	sbci	r23, 0xFF	; 255
    201e:	0e 94 af 12 	call	0x255e	; 0x255e <__unpack_f>
    2022:	ce 01       	movw	r24, r28
    2024:	05 96       	adiw	r24, 0x05	; 5
    2026:	be 01       	movw	r22, r28
    2028:	6f 5e       	subi	r22, 0xEF	; 239
    202a:	7f 4f       	sbci	r23, 0xFF	; 255
    202c:	0e 94 af 12 	call	0x255e	; 0x255e <__unpack_f>
    2030:	99 85       	ldd	r25, Y+9	; 0x09
    2032:	92 30       	cpi	r25, 0x02	; 2
    2034:	88 f0       	brcs	.+34     	; 0x2058 <__mulsf3+0x60>
    2036:	89 89       	ldd	r24, Y+17	; 0x11
    2038:	82 30       	cpi	r24, 0x02	; 2
    203a:	c8 f0       	brcs	.+50     	; 0x206e <__mulsf3+0x76>
    203c:	94 30       	cpi	r25, 0x04	; 4
    203e:	19 f4       	brne	.+6      	; 0x2046 <__mulsf3+0x4e>
    2040:	82 30       	cpi	r24, 0x02	; 2
    2042:	51 f4       	brne	.+20     	; 0x2058 <__mulsf3+0x60>
    2044:	04 c0       	rjmp	.+8      	; 0x204e <__mulsf3+0x56>
    2046:	84 30       	cpi	r24, 0x04	; 4
    2048:	29 f4       	brne	.+10     	; 0x2054 <__mulsf3+0x5c>
    204a:	92 30       	cpi	r25, 0x02	; 2
    204c:	81 f4       	brne	.+32     	; 0x206e <__mulsf3+0x76>
    204e:	80 e6       	ldi	r24, 0x60	; 96
    2050:	90 e0       	ldi	r25, 0x00	; 0
    2052:	c6 c0       	rjmp	.+396    	; 0x21e0 <__mulsf3+0x1e8>
    2054:	92 30       	cpi	r25, 0x02	; 2
    2056:	49 f4       	brne	.+18     	; 0x206a <__mulsf3+0x72>
    2058:	20 e0       	ldi	r18, 0x00	; 0
    205a:	9a 85       	ldd	r25, Y+10	; 0x0a
    205c:	8a 89       	ldd	r24, Y+18	; 0x12
    205e:	98 13       	cpse	r25, r24
    2060:	21 e0       	ldi	r18, 0x01	; 1
    2062:	2a 87       	std	Y+10, r18	; 0x0a
    2064:	ce 01       	movw	r24, r28
    2066:	09 96       	adiw	r24, 0x09	; 9
    2068:	bb c0       	rjmp	.+374    	; 0x21e0 <__mulsf3+0x1e8>
    206a:	82 30       	cpi	r24, 0x02	; 2
    206c:	49 f4       	brne	.+18     	; 0x2080 <__mulsf3+0x88>
    206e:	20 e0       	ldi	r18, 0x00	; 0
    2070:	9a 85       	ldd	r25, Y+10	; 0x0a
    2072:	8a 89       	ldd	r24, Y+18	; 0x12
    2074:	98 13       	cpse	r25, r24
    2076:	21 e0       	ldi	r18, 0x01	; 1
    2078:	2a 8b       	std	Y+18, r18	; 0x12
    207a:	ce 01       	movw	r24, r28
    207c:	41 96       	adiw	r24, 0x11	; 17
    207e:	b0 c0       	rjmp	.+352    	; 0x21e0 <__mulsf3+0x1e8>
    2080:	2d 84       	ldd	r2, Y+13	; 0x0d
    2082:	3e 84       	ldd	r3, Y+14	; 0x0e
    2084:	4f 84       	ldd	r4, Y+15	; 0x0f
    2086:	58 88       	ldd	r5, Y+16	; 0x10
    2088:	6d 88       	ldd	r6, Y+21	; 0x15
    208a:	7e 88       	ldd	r7, Y+22	; 0x16
    208c:	8f 88       	ldd	r8, Y+23	; 0x17
    208e:	98 8c       	ldd	r9, Y+24	; 0x18
    2090:	ee 24       	eor	r14, r14
    2092:	ff 24       	eor	r15, r15
    2094:	87 01       	movw	r16, r14
    2096:	aa 24       	eor	r10, r10
    2098:	bb 24       	eor	r11, r11
    209a:	65 01       	movw	r12, r10
    209c:	40 e0       	ldi	r20, 0x00	; 0
    209e:	50 e0       	ldi	r21, 0x00	; 0
    20a0:	60 e0       	ldi	r22, 0x00	; 0
    20a2:	70 e0       	ldi	r23, 0x00	; 0
    20a4:	e0 e0       	ldi	r30, 0x00	; 0
    20a6:	f0 e0       	ldi	r31, 0x00	; 0
    20a8:	c1 01       	movw	r24, r2
    20aa:	81 70       	andi	r24, 0x01	; 1
    20ac:	90 70       	andi	r25, 0x00	; 0
    20ae:	89 2b       	or	r24, r25
    20b0:	e9 f0       	breq	.+58     	; 0x20ec <__mulsf3+0xf4>
    20b2:	e6 0c       	add	r14, r6
    20b4:	f7 1c       	adc	r15, r7
    20b6:	08 1d       	adc	r16, r8
    20b8:	19 1d       	adc	r17, r9
    20ba:	9a 01       	movw	r18, r20
    20bc:	ab 01       	movw	r20, r22
    20be:	2a 0d       	add	r18, r10
    20c0:	3b 1d       	adc	r19, r11
    20c2:	4c 1d       	adc	r20, r12
    20c4:	5d 1d       	adc	r21, r13
    20c6:	80 e0       	ldi	r24, 0x00	; 0
    20c8:	90 e0       	ldi	r25, 0x00	; 0
    20ca:	a0 e0       	ldi	r26, 0x00	; 0
    20cc:	b0 e0       	ldi	r27, 0x00	; 0
    20ce:	e6 14       	cp	r14, r6
    20d0:	f7 04       	cpc	r15, r7
    20d2:	08 05       	cpc	r16, r8
    20d4:	19 05       	cpc	r17, r9
    20d6:	20 f4       	brcc	.+8      	; 0x20e0 <__mulsf3+0xe8>
    20d8:	81 e0       	ldi	r24, 0x01	; 1
    20da:	90 e0       	ldi	r25, 0x00	; 0
    20dc:	a0 e0       	ldi	r26, 0x00	; 0
    20de:	b0 e0       	ldi	r27, 0x00	; 0
    20e0:	ba 01       	movw	r22, r20
    20e2:	a9 01       	movw	r20, r18
    20e4:	48 0f       	add	r20, r24
    20e6:	59 1f       	adc	r21, r25
    20e8:	6a 1f       	adc	r22, r26
    20ea:	7b 1f       	adc	r23, r27
    20ec:	aa 0c       	add	r10, r10
    20ee:	bb 1c       	adc	r11, r11
    20f0:	cc 1c       	adc	r12, r12
    20f2:	dd 1c       	adc	r13, r13
    20f4:	97 fe       	sbrs	r9, 7
    20f6:	08 c0       	rjmp	.+16     	; 0x2108 <__mulsf3+0x110>
    20f8:	81 e0       	ldi	r24, 0x01	; 1
    20fa:	90 e0       	ldi	r25, 0x00	; 0
    20fc:	a0 e0       	ldi	r26, 0x00	; 0
    20fe:	b0 e0       	ldi	r27, 0x00	; 0
    2100:	a8 2a       	or	r10, r24
    2102:	b9 2a       	or	r11, r25
    2104:	ca 2a       	or	r12, r26
    2106:	db 2a       	or	r13, r27
    2108:	31 96       	adiw	r30, 0x01	; 1
    210a:	e0 32       	cpi	r30, 0x20	; 32
    210c:	f1 05       	cpc	r31, r1
    210e:	49 f0       	breq	.+18     	; 0x2122 <__mulsf3+0x12a>
    2110:	66 0c       	add	r6, r6
    2112:	77 1c       	adc	r7, r7
    2114:	88 1c       	adc	r8, r8
    2116:	99 1c       	adc	r9, r9
    2118:	56 94       	lsr	r5
    211a:	47 94       	ror	r4
    211c:	37 94       	ror	r3
    211e:	27 94       	ror	r2
    2120:	c3 cf       	rjmp	.-122    	; 0x20a8 <__mulsf3+0xb0>
    2122:	fa 85       	ldd	r31, Y+10	; 0x0a
    2124:	ea 89       	ldd	r30, Y+18	; 0x12
    2126:	2b 89       	ldd	r18, Y+19	; 0x13
    2128:	3c 89       	ldd	r19, Y+20	; 0x14
    212a:	8b 85       	ldd	r24, Y+11	; 0x0b
    212c:	9c 85       	ldd	r25, Y+12	; 0x0c
    212e:	28 0f       	add	r18, r24
    2130:	39 1f       	adc	r19, r25
    2132:	2e 5f       	subi	r18, 0xFE	; 254
    2134:	3f 4f       	sbci	r19, 0xFF	; 255
    2136:	17 c0       	rjmp	.+46     	; 0x2166 <__mulsf3+0x16e>
    2138:	ca 01       	movw	r24, r20
    213a:	81 70       	andi	r24, 0x01	; 1
    213c:	90 70       	andi	r25, 0x00	; 0
    213e:	89 2b       	or	r24, r25
    2140:	61 f0       	breq	.+24     	; 0x215a <__mulsf3+0x162>
    2142:	16 95       	lsr	r17
    2144:	07 95       	ror	r16
    2146:	f7 94       	ror	r15
    2148:	e7 94       	ror	r14
    214a:	80 e0       	ldi	r24, 0x00	; 0
    214c:	90 e0       	ldi	r25, 0x00	; 0
    214e:	a0 e0       	ldi	r26, 0x00	; 0
    2150:	b0 e8       	ldi	r27, 0x80	; 128
    2152:	e8 2a       	or	r14, r24
    2154:	f9 2a       	or	r15, r25
    2156:	0a 2b       	or	r16, r26
    2158:	1b 2b       	or	r17, r27
    215a:	76 95       	lsr	r23
    215c:	67 95       	ror	r22
    215e:	57 95       	ror	r21
    2160:	47 95       	ror	r20
    2162:	2f 5f       	subi	r18, 0xFF	; 255
    2164:	3f 4f       	sbci	r19, 0xFF	; 255
    2166:	77 fd       	sbrc	r23, 7
    2168:	e7 cf       	rjmp	.-50     	; 0x2138 <__mulsf3+0x140>
    216a:	0c c0       	rjmp	.+24     	; 0x2184 <__mulsf3+0x18c>
    216c:	44 0f       	add	r20, r20
    216e:	55 1f       	adc	r21, r21
    2170:	66 1f       	adc	r22, r22
    2172:	77 1f       	adc	r23, r23
    2174:	17 fd       	sbrc	r17, 7
    2176:	41 60       	ori	r20, 0x01	; 1
    2178:	ee 0c       	add	r14, r14
    217a:	ff 1c       	adc	r15, r15
    217c:	00 1f       	adc	r16, r16
    217e:	11 1f       	adc	r17, r17
    2180:	21 50       	subi	r18, 0x01	; 1
    2182:	30 40       	sbci	r19, 0x00	; 0
    2184:	40 30       	cpi	r20, 0x00	; 0
    2186:	90 e0       	ldi	r25, 0x00	; 0
    2188:	59 07       	cpc	r21, r25
    218a:	90 e0       	ldi	r25, 0x00	; 0
    218c:	69 07       	cpc	r22, r25
    218e:	90 e4       	ldi	r25, 0x40	; 64
    2190:	79 07       	cpc	r23, r25
    2192:	60 f3       	brcs	.-40     	; 0x216c <__mulsf3+0x174>
    2194:	2b 8f       	std	Y+27, r18	; 0x1b
    2196:	3c 8f       	std	Y+28, r19	; 0x1c
    2198:	db 01       	movw	r26, r22
    219a:	ca 01       	movw	r24, r20
    219c:	8f 77       	andi	r24, 0x7F	; 127
    219e:	90 70       	andi	r25, 0x00	; 0
    21a0:	a0 70       	andi	r26, 0x00	; 0
    21a2:	b0 70       	andi	r27, 0x00	; 0
    21a4:	80 34       	cpi	r24, 0x40	; 64
    21a6:	91 05       	cpc	r25, r1
    21a8:	a1 05       	cpc	r26, r1
    21aa:	b1 05       	cpc	r27, r1
    21ac:	61 f4       	brne	.+24     	; 0x21c6 <__mulsf3+0x1ce>
    21ae:	47 fd       	sbrc	r20, 7
    21b0:	0a c0       	rjmp	.+20     	; 0x21c6 <__mulsf3+0x1ce>
    21b2:	e1 14       	cp	r14, r1
    21b4:	f1 04       	cpc	r15, r1
    21b6:	01 05       	cpc	r16, r1
    21b8:	11 05       	cpc	r17, r1
    21ba:	29 f0       	breq	.+10     	; 0x21c6 <__mulsf3+0x1ce>
    21bc:	40 5c       	subi	r20, 0xC0	; 192
    21be:	5f 4f       	sbci	r21, 0xFF	; 255
    21c0:	6f 4f       	sbci	r22, 0xFF	; 255
    21c2:	7f 4f       	sbci	r23, 0xFF	; 255
    21c4:	40 78       	andi	r20, 0x80	; 128
    21c6:	1a 8e       	std	Y+26, r1	; 0x1a
    21c8:	fe 17       	cp	r31, r30
    21ca:	11 f0       	breq	.+4      	; 0x21d0 <__mulsf3+0x1d8>
    21cc:	81 e0       	ldi	r24, 0x01	; 1
    21ce:	8a 8f       	std	Y+26, r24	; 0x1a
    21d0:	4d 8f       	std	Y+29, r20	; 0x1d
    21d2:	5e 8f       	std	Y+30, r21	; 0x1e
    21d4:	6f 8f       	std	Y+31, r22	; 0x1f
    21d6:	78 a3       	std	Y+32, r23	; 0x20
    21d8:	83 e0       	ldi	r24, 0x03	; 3
    21da:	89 8f       	std	Y+25, r24	; 0x19
    21dc:	ce 01       	movw	r24, r28
    21de:	49 96       	adiw	r24, 0x19	; 25
    21e0:	0e 94 da 11 	call	0x23b4	; 0x23b4 <__pack_f>
    21e4:	a0 96       	adiw	r28, 0x20	; 32
    21e6:	e2 e1       	ldi	r30, 0x12	; 18
    21e8:	0c 94 b0 13 	jmp	0x2760	; 0x2760 <__epilogue_restores__>

000021ec <__gtsf2>:
    21ec:	a8 e1       	ldi	r26, 0x18	; 24
    21ee:	b0 e0       	ldi	r27, 0x00	; 0
    21f0:	ec ef       	ldi	r30, 0xFC	; 252
    21f2:	f0 e1       	ldi	r31, 0x10	; 16
    21f4:	0c 94 a0 13 	jmp	0x2740	; 0x2740 <__prologue_saves__+0x18>
    21f8:	69 83       	std	Y+1, r22	; 0x01
    21fa:	7a 83       	std	Y+2, r23	; 0x02
    21fc:	8b 83       	std	Y+3, r24	; 0x03
    21fe:	9c 83       	std	Y+4, r25	; 0x04
    2200:	2d 83       	std	Y+5, r18	; 0x05
    2202:	3e 83       	std	Y+6, r19	; 0x06
    2204:	4f 83       	std	Y+7, r20	; 0x07
    2206:	58 87       	std	Y+8, r21	; 0x08
    2208:	89 e0       	ldi	r24, 0x09	; 9
    220a:	e8 2e       	mov	r14, r24
    220c:	f1 2c       	mov	r15, r1
    220e:	ec 0e       	add	r14, r28
    2210:	fd 1e       	adc	r15, r29
    2212:	ce 01       	movw	r24, r28
    2214:	01 96       	adiw	r24, 0x01	; 1
    2216:	b7 01       	movw	r22, r14
    2218:	0e 94 af 12 	call	0x255e	; 0x255e <__unpack_f>
    221c:	8e 01       	movw	r16, r28
    221e:	0f 5e       	subi	r16, 0xEF	; 239
    2220:	1f 4f       	sbci	r17, 0xFF	; 255
    2222:	ce 01       	movw	r24, r28
    2224:	05 96       	adiw	r24, 0x05	; 5
    2226:	b8 01       	movw	r22, r16
    2228:	0e 94 af 12 	call	0x255e	; 0x255e <__unpack_f>
    222c:	89 85       	ldd	r24, Y+9	; 0x09
    222e:	82 30       	cpi	r24, 0x02	; 2
    2230:	40 f0       	brcs	.+16     	; 0x2242 <__gtsf2+0x56>
    2232:	89 89       	ldd	r24, Y+17	; 0x11
    2234:	82 30       	cpi	r24, 0x02	; 2
    2236:	28 f0       	brcs	.+10     	; 0x2242 <__gtsf2+0x56>
    2238:	c7 01       	movw	r24, r14
    223a:	b8 01       	movw	r22, r16
    223c:	0e 94 27 13 	call	0x264e	; 0x264e <__fpcmp_parts_f>
    2240:	01 c0       	rjmp	.+2      	; 0x2244 <__gtsf2+0x58>
    2242:	8f ef       	ldi	r24, 0xFF	; 255
    2244:	68 96       	adiw	r28, 0x18	; 24
    2246:	e6 e0       	ldi	r30, 0x06	; 6
    2248:	0c 94 bc 13 	jmp	0x2778	; 0x2778 <__epilogue_restores__+0x18>

0000224c <__gesf2>:
    224c:	a8 e1       	ldi	r26, 0x18	; 24
    224e:	b0 e0       	ldi	r27, 0x00	; 0
    2250:	ec e2       	ldi	r30, 0x2C	; 44
    2252:	f1 e1       	ldi	r31, 0x11	; 17
    2254:	0c 94 a0 13 	jmp	0x2740	; 0x2740 <__prologue_saves__+0x18>
    2258:	69 83       	std	Y+1, r22	; 0x01
    225a:	7a 83       	std	Y+2, r23	; 0x02
    225c:	8b 83       	std	Y+3, r24	; 0x03
    225e:	9c 83       	std	Y+4, r25	; 0x04
    2260:	2d 83       	std	Y+5, r18	; 0x05
    2262:	3e 83       	std	Y+6, r19	; 0x06
    2264:	4f 83       	std	Y+7, r20	; 0x07
    2266:	58 87       	std	Y+8, r21	; 0x08
    2268:	89 e0       	ldi	r24, 0x09	; 9
    226a:	e8 2e       	mov	r14, r24
    226c:	f1 2c       	mov	r15, r1
    226e:	ec 0e       	add	r14, r28
    2270:	fd 1e       	adc	r15, r29
    2272:	ce 01       	movw	r24, r28
    2274:	01 96       	adiw	r24, 0x01	; 1
    2276:	b7 01       	movw	r22, r14
    2278:	0e 94 af 12 	call	0x255e	; 0x255e <__unpack_f>
    227c:	8e 01       	movw	r16, r28
    227e:	0f 5e       	subi	r16, 0xEF	; 239
    2280:	1f 4f       	sbci	r17, 0xFF	; 255
    2282:	ce 01       	movw	r24, r28
    2284:	05 96       	adiw	r24, 0x05	; 5
    2286:	b8 01       	movw	r22, r16
    2288:	0e 94 af 12 	call	0x255e	; 0x255e <__unpack_f>
    228c:	89 85       	ldd	r24, Y+9	; 0x09
    228e:	82 30       	cpi	r24, 0x02	; 2
    2290:	40 f0       	brcs	.+16     	; 0x22a2 <__gesf2+0x56>
    2292:	89 89       	ldd	r24, Y+17	; 0x11
    2294:	82 30       	cpi	r24, 0x02	; 2
    2296:	28 f0       	brcs	.+10     	; 0x22a2 <__gesf2+0x56>
    2298:	c7 01       	movw	r24, r14
    229a:	b8 01       	movw	r22, r16
    229c:	0e 94 27 13 	call	0x264e	; 0x264e <__fpcmp_parts_f>
    22a0:	01 c0       	rjmp	.+2      	; 0x22a4 <__gesf2+0x58>
    22a2:	8f ef       	ldi	r24, 0xFF	; 255
    22a4:	68 96       	adiw	r28, 0x18	; 24
    22a6:	e6 e0       	ldi	r30, 0x06	; 6
    22a8:	0c 94 bc 13 	jmp	0x2778	; 0x2778 <__epilogue_restores__+0x18>

000022ac <__ltsf2>:
    22ac:	a8 e1       	ldi	r26, 0x18	; 24
    22ae:	b0 e0       	ldi	r27, 0x00	; 0
    22b0:	ec e5       	ldi	r30, 0x5C	; 92
    22b2:	f1 e1       	ldi	r31, 0x11	; 17
    22b4:	0c 94 a0 13 	jmp	0x2740	; 0x2740 <__prologue_saves__+0x18>
    22b8:	69 83       	std	Y+1, r22	; 0x01
    22ba:	7a 83       	std	Y+2, r23	; 0x02
    22bc:	8b 83       	std	Y+3, r24	; 0x03
    22be:	9c 83       	std	Y+4, r25	; 0x04
    22c0:	2d 83       	std	Y+5, r18	; 0x05
    22c2:	3e 83       	std	Y+6, r19	; 0x06
    22c4:	4f 83       	std	Y+7, r20	; 0x07
    22c6:	58 87       	std	Y+8, r21	; 0x08
    22c8:	89 e0       	ldi	r24, 0x09	; 9
    22ca:	e8 2e       	mov	r14, r24
    22cc:	f1 2c       	mov	r15, r1
    22ce:	ec 0e       	add	r14, r28
    22d0:	fd 1e       	adc	r15, r29
    22d2:	ce 01       	movw	r24, r28
    22d4:	01 96       	adiw	r24, 0x01	; 1
    22d6:	b7 01       	movw	r22, r14
    22d8:	0e 94 af 12 	call	0x255e	; 0x255e <__unpack_f>
    22dc:	8e 01       	movw	r16, r28
    22de:	0f 5e       	subi	r16, 0xEF	; 239
    22e0:	1f 4f       	sbci	r17, 0xFF	; 255
    22e2:	ce 01       	movw	r24, r28
    22e4:	05 96       	adiw	r24, 0x05	; 5
    22e6:	b8 01       	movw	r22, r16
    22e8:	0e 94 af 12 	call	0x255e	; 0x255e <__unpack_f>
    22ec:	89 85       	ldd	r24, Y+9	; 0x09
    22ee:	82 30       	cpi	r24, 0x02	; 2
    22f0:	40 f0       	brcs	.+16     	; 0x2302 <__ltsf2+0x56>
    22f2:	89 89       	ldd	r24, Y+17	; 0x11
    22f4:	82 30       	cpi	r24, 0x02	; 2
    22f6:	28 f0       	brcs	.+10     	; 0x2302 <__ltsf2+0x56>
    22f8:	c7 01       	movw	r24, r14
    22fa:	b8 01       	movw	r22, r16
    22fc:	0e 94 27 13 	call	0x264e	; 0x264e <__fpcmp_parts_f>
    2300:	01 c0       	rjmp	.+2      	; 0x2304 <__ltsf2+0x58>
    2302:	81 e0       	ldi	r24, 0x01	; 1
    2304:	68 96       	adiw	r28, 0x18	; 24
    2306:	e6 e0       	ldi	r30, 0x06	; 6
    2308:	0c 94 bc 13 	jmp	0x2778	; 0x2778 <__epilogue_restores__+0x18>

0000230c <__fixsfsi>:
    230c:	ac e0       	ldi	r26, 0x0C	; 12
    230e:	b0 e0       	ldi	r27, 0x00	; 0
    2310:	ec e8       	ldi	r30, 0x8C	; 140
    2312:	f1 e1       	ldi	r31, 0x11	; 17
    2314:	0c 94 a4 13 	jmp	0x2748	; 0x2748 <__prologue_saves__+0x20>
    2318:	69 83       	std	Y+1, r22	; 0x01
    231a:	7a 83       	std	Y+2, r23	; 0x02
    231c:	8b 83       	std	Y+3, r24	; 0x03
    231e:	9c 83       	std	Y+4, r25	; 0x04
    2320:	ce 01       	movw	r24, r28
    2322:	01 96       	adiw	r24, 0x01	; 1
    2324:	be 01       	movw	r22, r28
    2326:	6b 5f       	subi	r22, 0xFB	; 251
    2328:	7f 4f       	sbci	r23, 0xFF	; 255
    232a:	0e 94 af 12 	call	0x255e	; 0x255e <__unpack_f>
    232e:	8d 81       	ldd	r24, Y+5	; 0x05
    2330:	82 30       	cpi	r24, 0x02	; 2
    2332:	61 f1       	breq	.+88     	; 0x238c <__fixsfsi+0x80>
    2334:	82 30       	cpi	r24, 0x02	; 2
    2336:	50 f1       	brcs	.+84     	; 0x238c <__fixsfsi+0x80>
    2338:	84 30       	cpi	r24, 0x04	; 4
    233a:	21 f4       	brne	.+8      	; 0x2344 <__fixsfsi+0x38>
    233c:	8e 81       	ldd	r24, Y+6	; 0x06
    233e:	88 23       	and	r24, r24
    2340:	51 f1       	breq	.+84     	; 0x2396 <__fixsfsi+0x8a>
    2342:	2e c0       	rjmp	.+92     	; 0x23a0 <__fixsfsi+0x94>
    2344:	2f 81       	ldd	r18, Y+7	; 0x07
    2346:	38 85       	ldd	r19, Y+8	; 0x08
    2348:	37 fd       	sbrc	r19, 7
    234a:	20 c0       	rjmp	.+64     	; 0x238c <__fixsfsi+0x80>
    234c:	6e 81       	ldd	r22, Y+6	; 0x06
    234e:	2f 31       	cpi	r18, 0x1F	; 31
    2350:	31 05       	cpc	r19, r1
    2352:	1c f0       	brlt	.+6      	; 0x235a <__fixsfsi+0x4e>
    2354:	66 23       	and	r22, r22
    2356:	f9 f0       	breq	.+62     	; 0x2396 <__fixsfsi+0x8a>
    2358:	23 c0       	rjmp	.+70     	; 0x23a0 <__fixsfsi+0x94>
    235a:	8e e1       	ldi	r24, 0x1E	; 30
    235c:	90 e0       	ldi	r25, 0x00	; 0
    235e:	82 1b       	sub	r24, r18
    2360:	93 0b       	sbc	r25, r19
    2362:	29 85       	ldd	r18, Y+9	; 0x09
    2364:	3a 85       	ldd	r19, Y+10	; 0x0a
    2366:	4b 85       	ldd	r20, Y+11	; 0x0b
    2368:	5c 85       	ldd	r21, Y+12	; 0x0c
    236a:	04 c0       	rjmp	.+8      	; 0x2374 <__fixsfsi+0x68>
    236c:	56 95       	lsr	r21
    236e:	47 95       	ror	r20
    2370:	37 95       	ror	r19
    2372:	27 95       	ror	r18
    2374:	8a 95       	dec	r24
    2376:	d2 f7       	brpl	.-12     	; 0x236c <__fixsfsi+0x60>
    2378:	66 23       	and	r22, r22
    237a:	b1 f0       	breq	.+44     	; 0x23a8 <__fixsfsi+0x9c>
    237c:	50 95       	com	r21
    237e:	40 95       	com	r20
    2380:	30 95       	com	r19
    2382:	21 95       	neg	r18
    2384:	3f 4f       	sbci	r19, 0xFF	; 255
    2386:	4f 4f       	sbci	r20, 0xFF	; 255
    2388:	5f 4f       	sbci	r21, 0xFF	; 255
    238a:	0e c0       	rjmp	.+28     	; 0x23a8 <__fixsfsi+0x9c>
    238c:	20 e0       	ldi	r18, 0x00	; 0
    238e:	30 e0       	ldi	r19, 0x00	; 0
    2390:	40 e0       	ldi	r20, 0x00	; 0
    2392:	50 e0       	ldi	r21, 0x00	; 0
    2394:	09 c0       	rjmp	.+18     	; 0x23a8 <__fixsfsi+0x9c>
    2396:	2f ef       	ldi	r18, 0xFF	; 255
    2398:	3f ef       	ldi	r19, 0xFF	; 255
    239a:	4f ef       	ldi	r20, 0xFF	; 255
    239c:	5f e7       	ldi	r21, 0x7F	; 127
    239e:	04 c0       	rjmp	.+8      	; 0x23a8 <__fixsfsi+0x9c>
    23a0:	20 e0       	ldi	r18, 0x00	; 0
    23a2:	30 e0       	ldi	r19, 0x00	; 0
    23a4:	40 e0       	ldi	r20, 0x00	; 0
    23a6:	50 e8       	ldi	r21, 0x80	; 128
    23a8:	b9 01       	movw	r22, r18
    23aa:	ca 01       	movw	r24, r20
    23ac:	2c 96       	adiw	r28, 0x0c	; 12
    23ae:	e2 e0       	ldi	r30, 0x02	; 2
    23b0:	0c 94 c0 13 	jmp	0x2780	; 0x2780 <__epilogue_restores__+0x20>

000023b4 <__pack_f>:
    23b4:	df 92       	push	r13
    23b6:	ef 92       	push	r14
    23b8:	ff 92       	push	r15
    23ba:	0f 93       	push	r16
    23bc:	1f 93       	push	r17
    23be:	fc 01       	movw	r30, r24
    23c0:	e4 80       	ldd	r14, Z+4	; 0x04
    23c2:	f5 80       	ldd	r15, Z+5	; 0x05
    23c4:	06 81       	ldd	r16, Z+6	; 0x06
    23c6:	17 81       	ldd	r17, Z+7	; 0x07
    23c8:	d1 80       	ldd	r13, Z+1	; 0x01
    23ca:	80 81       	ld	r24, Z
    23cc:	82 30       	cpi	r24, 0x02	; 2
    23ce:	48 f4       	brcc	.+18     	; 0x23e2 <__pack_f+0x2e>
    23d0:	80 e0       	ldi	r24, 0x00	; 0
    23d2:	90 e0       	ldi	r25, 0x00	; 0
    23d4:	a0 e1       	ldi	r26, 0x10	; 16
    23d6:	b0 e0       	ldi	r27, 0x00	; 0
    23d8:	e8 2a       	or	r14, r24
    23da:	f9 2a       	or	r15, r25
    23dc:	0a 2b       	or	r16, r26
    23de:	1b 2b       	or	r17, r27
    23e0:	a5 c0       	rjmp	.+330    	; 0x252c <__pack_f+0x178>
    23e2:	84 30       	cpi	r24, 0x04	; 4
    23e4:	09 f4       	brne	.+2      	; 0x23e8 <__pack_f+0x34>
    23e6:	9f c0       	rjmp	.+318    	; 0x2526 <__pack_f+0x172>
    23e8:	82 30       	cpi	r24, 0x02	; 2
    23ea:	21 f4       	brne	.+8      	; 0x23f4 <__pack_f+0x40>
    23ec:	ee 24       	eor	r14, r14
    23ee:	ff 24       	eor	r15, r15
    23f0:	87 01       	movw	r16, r14
    23f2:	05 c0       	rjmp	.+10     	; 0x23fe <__pack_f+0x4a>
    23f4:	e1 14       	cp	r14, r1
    23f6:	f1 04       	cpc	r15, r1
    23f8:	01 05       	cpc	r16, r1
    23fa:	11 05       	cpc	r17, r1
    23fc:	19 f4       	brne	.+6      	; 0x2404 <__pack_f+0x50>
    23fe:	e0 e0       	ldi	r30, 0x00	; 0
    2400:	f0 e0       	ldi	r31, 0x00	; 0
    2402:	96 c0       	rjmp	.+300    	; 0x2530 <__pack_f+0x17c>
    2404:	62 81       	ldd	r22, Z+2	; 0x02
    2406:	73 81       	ldd	r23, Z+3	; 0x03
    2408:	9f ef       	ldi	r25, 0xFF	; 255
    240a:	62 38       	cpi	r22, 0x82	; 130
    240c:	79 07       	cpc	r23, r25
    240e:	0c f0       	brlt	.+2      	; 0x2412 <__pack_f+0x5e>
    2410:	5b c0       	rjmp	.+182    	; 0x24c8 <__pack_f+0x114>
    2412:	22 e8       	ldi	r18, 0x82	; 130
    2414:	3f ef       	ldi	r19, 0xFF	; 255
    2416:	26 1b       	sub	r18, r22
    2418:	37 0b       	sbc	r19, r23
    241a:	2a 31       	cpi	r18, 0x1A	; 26
    241c:	31 05       	cpc	r19, r1
    241e:	2c f0       	brlt	.+10     	; 0x242a <__pack_f+0x76>
    2420:	20 e0       	ldi	r18, 0x00	; 0
    2422:	30 e0       	ldi	r19, 0x00	; 0
    2424:	40 e0       	ldi	r20, 0x00	; 0
    2426:	50 e0       	ldi	r21, 0x00	; 0
    2428:	2a c0       	rjmp	.+84     	; 0x247e <__pack_f+0xca>
    242a:	b8 01       	movw	r22, r16
    242c:	a7 01       	movw	r20, r14
    242e:	02 2e       	mov	r0, r18
    2430:	04 c0       	rjmp	.+8      	; 0x243a <__pack_f+0x86>
    2432:	76 95       	lsr	r23
    2434:	67 95       	ror	r22
    2436:	57 95       	ror	r21
    2438:	47 95       	ror	r20
    243a:	0a 94       	dec	r0
    243c:	d2 f7       	brpl	.-12     	; 0x2432 <__pack_f+0x7e>
    243e:	81 e0       	ldi	r24, 0x01	; 1
    2440:	90 e0       	ldi	r25, 0x00	; 0
    2442:	a0 e0       	ldi	r26, 0x00	; 0
    2444:	b0 e0       	ldi	r27, 0x00	; 0
    2446:	04 c0       	rjmp	.+8      	; 0x2450 <__pack_f+0x9c>
    2448:	88 0f       	add	r24, r24
    244a:	99 1f       	adc	r25, r25
    244c:	aa 1f       	adc	r26, r26
    244e:	bb 1f       	adc	r27, r27
    2450:	2a 95       	dec	r18
    2452:	d2 f7       	brpl	.-12     	; 0x2448 <__pack_f+0x94>
    2454:	01 97       	sbiw	r24, 0x01	; 1
    2456:	a1 09       	sbc	r26, r1
    2458:	b1 09       	sbc	r27, r1
    245a:	8e 21       	and	r24, r14
    245c:	9f 21       	and	r25, r15
    245e:	a0 23       	and	r26, r16
    2460:	b1 23       	and	r27, r17
    2462:	00 97       	sbiw	r24, 0x00	; 0
    2464:	a1 05       	cpc	r26, r1
    2466:	b1 05       	cpc	r27, r1
    2468:	21 f0       	breq	.+8      	; 0x2472 <__pack_f+0xbe>
    246a:	81 e0       	ldi	r24, 0x01	; 1
    246c:	90 e0       	ldi	r25, 0x00	; 0
    246e:	a0 e0       	ldi	r26, 0x00	; 0
    2470:	b0 e0       	ldi	r27, 0x00	; 0
    2472:	9a 01       	movw	r18, r20
    2474:	ab 01       	movw	r20, r22
    2476:	28 2b       	or	r18, r24
    2478:	39 2b       	or	r19, r25
    247a:	4a 2b       	or	r20, r26
    247c:	5b 2b       	or	r21, r27
    247e:	da 01       	movw	r26, r20
    2480:	c9 01       	movw	r24, r18
    2482:	8f 77       	andi	r24, 0x7F	; 127
    2484:	90 70       	andi	r25, 0x00	; 0
    2486:	a0 70       	andi	r26, 0x00	; 0
    2488:	b0 70       	andi	r27, 0x00	; 0
    248a:	80 34       	cpi	r24, 0x40	; 64
    248c:	91 05       	cpc	r25, r1
    248e:	a1 05       	cpc	r26, r1
    2490:	b1 05       	cpc	r27, r1
    2492:	39 f4       	brne	.+14     	; 0x24a2 <__pack_f+0xee>
    2494:	27 ff       	sbrs	r18, 7
    2496:	09 c0       	rjmp	.+18     	; 0x24aa <__pack_f+0xf6>
    2498:	20 5c       	subi	r18, 0xC0	; 192
    249a:	3f 4f       	sbci	r19, 0xFF	; 255
    249c:	4f 4f       	sbci	r20, 0xFF	; 255
    249e:	5f 4f       	sbci	r21, 0xFF	; 255
    24a0:	04 c0       	rjmp	.+8      	; 0x24aa <__pack_f+0xf6>
    24a2:	21 5c       	subi	r18, 0xC1	; 193
    24a4:	3f 4f       	sbci	r19, 0xFF	; 255
    24a6:	4f 4f       	sbci	r20, 0xFF	; 255
    24a8:	5f 4f       	sbci	r21, 0xFF	; 255
    24aa:	e0 e0       	ldi	r30, 0x00	; 0
    24ac:	f0 e0       	ldi	r31, 0x00	; 0
    24ae:	20 30       	cpi	r18, 0x00	; 0
    24b0:	a0 e0       	ldi	r26, 0x00	; 0
    24b2:	3a 07       	cpc	r19, r26
    24b4:	a0 e0       	ldi	r26, 0x00	; 0
    24b6:	4a 07       	cpc	r20, r26
    24b8:	a0 e4       	ldi	r26, 0x40	; 64
    24ba:	5a 07       	cpc	r21, r26
    24bc:	10 f0       	brcs	.+4      	; 0x24c2 <__pack_f+0x10e>
    24be:	e1 e0       	ldi	r30, 0x01	; 1
    24c0:	f0 e0       	ldi	r31, 0x00	; 0
    24c2:	79 01       	movw	r14, r18
    24c4:	8a 01       	movw	r16, r20
    24c6:	27 c0       	rjmp	.+78     	; 0x2516 <__pack_f+0x162>
    24c8:	60 38       	cpi	r22, 0x80	; 128
    24ca:	71 05       	cpc	r23, r1
    24cc:	64 f5       	brge	.+88     	; 0x2526 <__pack_f+0x172>
    24ce:	fb 01       	movw	r30, r22
    24d0:	e1 58       	subi	r30, 0x81	; 129
    24d2:	ff 4f       	sbci	r31, 0xFF	; 255
    24d4:	d8 01       	movw	r26, r16
    24d6:	c7 01       	movw	r24, r14
    24d8:	8f 77       	andi	r24, 0x7F	; 127
    24da:	90 70       	andi	r25, 0x00	; 0
    24dc:	a0 70       	andi	r26, 0x00	; 0
    24de:	b0 70       	andi	r27, 0x00	; 0
    24e0:	80 34       	cpi	r24, 0x40	; 64
    24e2:	91 05       	cpc	r25, r1
    24e4:	a1 05       	cpc	r26, r1
    24e6:	b1 05       	cpc	r27, r1
    24e8:	39 f4       	brne	.+14     	; 0x24f8 <__pack_f+0x144>
    24ea:	e7 fe       	sbrs	r14, 7
    24ec:	0d c0       	rjmp	.+26     	; 0x2508 <__pack_f+0x154>
    24ee:	80 e4       	ldi	r24, 0x40	; 64
    24f0:	90 e0       	ldi	r25, 0x00	; 0
    24f2:	a0 e0       	ldi	r26, 0x00	; 0
    24f4:	b0 e0       	ldi	r27, 0x00	; 0
    24f6:	04 c0       	rjmp	.+8      	; 0x2500 <__pack_f+0x14c>
    24f8:	8f e3       	ldi	r24, 0x3F	; 63
    24fa:	90 e0       	ldi	r25, 0x00	; 0
    24fc:	a0 e0       	ldi	r26, 0x00	; 0
    24fe:	b0 e0       	ldi	r27, 0x00	; 0
    2500:	e8 0e       	add	r14, r24
    2502:	f9 1e       	adc	r15, r25
    2504:	0a 1f       	adc	r16, r26
    2506:	1b 1f       	adc	r17, r27
    2508:	17 ff       	sbrs	r17, 7
    250a:	05 c0       	rjmp	.+10     	; 0x2516 <__pack_f+0x162>
    250c:	16 95       	lsr	r17
    250e:	07 95       	ror	r16
    2510:	f7 94       	ror	r15
    2512:	e7 94       	ror	r14
    2514:	31 96       	adiw	r30, 0x01	; 1
    2516:	87 e0       	ldi	r24, 0x07	; 7
    2518:	16 95       	lsr	r17
    251a:	07 95       	ror	r16
    251c:	f7 94       	ror	r15
    251e:	e7 94       	ror	r14
    2520:	8a 95       	dec	r24
    2522:	d1 f7       	brne	.-12     	; 0x2518 <__pack_f+0x164>
    2524:	05 c0       	rjmp	.+10     	; 0x2530 <__pack_f+0x17c>
    2526:	ee 24       	eor	r14, r14
    2528:	ff 24       	eor	r15, r15
    252a:	87 01       	movw	r16, r14
    252c:	ef ef       	ldi	r30, 0xFF	; 255
    252e:	f0 e0       	ldi	r31, 0x00	; 0
    2530:	6e 2f       	mov	r22, r30
    2532:	67 95       	ror	r22
    2534:	66 27       	eor	r22, r22
    2536:	67 95       	ror	r22
    2538:	90 2f       	mov	r25, r16
    253a:	9f 77       	andi	r25, 0x7F	; 127
    253c:	d7 94       	ror	r13
    253e:	dd 24       	eor	r13, r13
    2540:	d7 94       	ror	r13
    2542:	8e 2f       	mov	r24, r30
    2544:	86 95       	lsr	r24
    2546:	49 2f       	mov	r20, r25
    2548:	46 2b       	or	r20, r22
    254a:	58 2f       	mov	r21, r24
    254c:	5d 29       	or	r21, r13
    254e:	b7 01       	movw	r22, r14
    2550:	ca 01       	movw	r24, r20
    2552:	1f 91       	pop	r17
    2554:	0f 91       	pop	r16
    2556:	ff 90       	pop	r15
    2558:	ef 90       	pop	r14
    255a:	df 90       	pop	r13
    255c:	08 95       	ret

0000255e <__unpack_f>:
    255e:	fc 01       	movw	r30, r24
    2560:	db 01       	movw	r26, r22
    2562:	40 81       	ld	r20, Z
    2564:	51 81       	ldd	r21, Z+1	; 0x01
    2566:	22 81       	ldd	r18, Z+2	; 0x02
    2568:	62 2f       	mov	r22, r18
    256a:	6f 77       	andi	r22, 0x7F	; 127
    256c:	70 e0       	ldi	r23, 0x00	; 0
    256e:	22 1f       	adc	r18, r18
    2570:	22 27       	eor	r18, r18
    2572:	22 1f       	adc	r18, r18
    2574:	93 81       	ldd	r25, Z+3	; 0x03
    2576:	89 2f       	mov	r24, r25
    2578:	88 0f       	add	r24, r24
    257a:	82 2b       	or	r24, r18
    257c:	28 2f       	mov	r18, r24
    257e:	30 e0       	ldi	r19, 0x00	; 0
    2580:	99 1f       	adc	r25, r25
    2582:	99 27       	eor	r25, r25
    2584:	99 1f       	adc	r25, r25
    2586:	11 96       	adiw	r26, 0x01	; 1
    2588:	9c 93       	st	X, r25
    258a:	11 97       	sbiw	r26, 0x01	; 1
    258c:	21 15       	cp	r18, r1
    258e:	31 05       	cpc	r19, r1
    2590:	a9 f5       	brne	.+106    	; 0x25fc <__unpack_f+0x9e>
    2592:	41 15       	cp	r20, r1
    2594:	51 05       	cpc	r21, r1
    2596:	61 05       	cpc	r22, r1
    2598:	71 05       	cpc	r23, r1
    259a:	11 f4       	brne	.+4      	; 0x25a0 <__unpack_f+0x42>
    259c:	82 e0       	ldi	r24, 0x02	; 2
    259e:	37 c0       	rjmp	.+110    	; 0x260e <__unpack_f+0xb0>
    25a0:	82 e8       	ldi	r24, 0x82	; 130
    25a2:	9f ef       	ldi	r25, 0xFF	; 255
    25a4:	13 96       	adiw	r26, 0x03	; 3
    25a6:	9c 93       	st	X, r25
    25a8:	8e 93       	st	-X, r24
    25aa:	12 97       	sbiw	r26, 0x02	; 2
    25ac:	9a 01       	movw	r18, r20
    25ae:	ab 01       	movw	r20, r22
    25b0:	67 e0       	ldi	r22, 0x07	; 7
    25b2:	22 0f       	add	r18, r18
    25b4:	33 1f       	adc	r19, r19
    25b6:	44 1f       	adc	r20, r20
    25b8:	55 1f       	adc	r21, r21
    25ba:	6a 95       	dec	r22
    25bc:	d1 f7       	brne	.-12     	; 0x25b2 <__unpack_f+0x54>
    25be:	83 e0       	ldi	r24, 0x03	; 3
    25c0:	8c 93       	st	X, r24
    25c2:	0d c0       	rjmp	.+26     	; 0x25de <__unpack_f+0x80>
    25c4:	22 0f       	add	r18, r18
    25c6:	33 1f       	adc	r19, r19
    25c8:	44 1f       	adc	r20, r20
    25ca:	55 1f       	adc	r21, r21
    25cc:	12 96       	adiw	r26, 0x02	; 2
    25ce:	8d 91       	ld	r24, X+
    25d0:	9c 91       	ld	r25, X
    25d2:	13 97       	sbiw	r26, 0x03	; 3
    25d4:	01 97       	sbiw	r24, 0x01	; 1
    25d6:	13 96       	adiw	r26, 0x03	; 3
    25d8:	9c 93       	st	X, r25
    25da:	8e 93       	st	-X, r24
    25dc:	12 97       	sbiw	r26, 0x02	; 2
    25de:	20 30       	cpi	r18, 0x00	; 0
    25e0:	80 e0       	ldi	r24, 0x00	; 0
    25e2:	38 07       	cpc	r19, r24
    25e4:	80 e0       	ldi	r24, 0x00	; 0
    25e6:	48 07       	cpc	r20, r24
    25e8:	80 e4       	ldi	r24, 0x40	; 64
    25ea:	58 07       	cpc	r21, r24
    25ec:	58 f3       	brcs	.-42     	; 0x25c4 <__unpack_f+0x66>
    25ee:	14 96       	adiw	r26, 0x04	; 4
    25f0:	2d 93       	st	X+, r18
    25f2:	3d 93       	st	X+, r19
    25f4:	4d 93       	st	X+, r20
    25f6:	5c 93       	st	X, r21
    25f8:	17 97       	sbiw	r26, 0x07	; 7
    25fa:	08 95       	ret
    25fc:	2f 3f       	cpi	r18, 0xFF	; 255
    25fe:	31 05       	cpc	r19, r1
    2600:	79 f4       	brne	.+30     	; 0x2620 <__unpack_f+0xc2>
    2602:	41 15       	cp	r20, r1
    2604:	51 05       	cpc	r21, r1
    2606:	61 05       	cpc	r22, r1
    2608:	71 05       	cpc	r23, r1
    260a:	19 f4       	brne	.+6      	; 0x2612 <__unpack_f+0xb4>
    260c:	84 e0       	ldi	r24, 0x04	; 4
    260e:	8c 93       	st	X, r24
    2610:	08 95       	ret
    2612:	64 ff       	sbrs	r22, 4
    2614:	03 c0       	rjmp	.+6      	; 0x261c <__unpack_f+0xbe>
    2616:	81 e0       	ldi	r24, 0x01	; 1
    2618:	8c 93       	st	X, r24
    261a:	12 c0       	rjmp	.+36     	; 0x2640 <__unpack_f+0xe2>
    261c:	1c 92       	st	X, r1
    261e:	10 c0       	rjmp	.+32     	; 0x2640 <__unpack_f+0xe2>
    2620:	2f 57       	subi	r18, 0x7F	; 127
    2622:	30 40       	sbci	r19, 0x00	; 0
    2624:	13 96       	adiw	r26, 0x03	; 3
    2626:	3c 93       	st	X, r19
    2628:	2e 93       	st	-X, r18
    262a:	12 97       	sbiw	r26, 0x02	; 2
    262c:	83 e0       	ldi	r24, 0x03	; 3
    262e:	8c 93       	st	X, r24
    2630:	87 e0       	ldi	r24, 0x07	; 7
    2632:	44 0f       	add	r20, r20
    2634:	55 1f       	adc	r21, r21
    2636:	66 1f       	adc	r22, r22
    2638:	77 1f       	adc	r23, r23
    263a:	8a 95       	dec	r24
    263c:	d1 f7       	brne	.-12     	; 0x2632 <__unpack_f+0xd4>
    263e:	70 64       	ori	r23, 0x40	; 64
    2640:	14 96       	adiw	r26, 0x04	; 4
    2642:	4d 93       	st	X+, r20
    2644:	5d 93       	st	X+, r21
    2646:	6d 93       	st	X+, r22
    2648:	7c 93       	st	X, r23
    264a:	17 97       	sbiw	r26, 0x07	; 7
    264c:	08 95       	ret

0000264e <__fpcmp_parts_f>:
    264e:	1f 93       	push	r17
    2650:	dc 01       	movw	r26, r24
    2652:	fb 01       	movw	r30, r22
    2654:	9c 91       	ld	r25, X
    2656:	92 30       	cpi	r25, 0x02	; 2
    2658:	08 f4       	brcc	.+2      	; 0x265c <__fpcmp_parts_f+0xe>
    265a:	47 c0       	rjmp	.+142    	; 0x26ea <__fpcmp_parts_f+0x9c>
    265c:	80 81       	ld	r24, Z
    265e:	82 30       	cpi	r24, 0x02	; 2
    2660:	08 f4       	brcc	.+2      	; 0x2664 <__fpcmp_parts_f+0x16>
    2662:	43 c0       	rjmp	.+134    	; 0x26ea <__fpcmp_parts_f+0x9c>
    2664:	94 30       	cpi	r25, 0x04	; 4
    2666:	51 f4       	brne	.+20     	; 0x267c <__fpcmp_parts_f+0x2e>
    2668:	11 96       	adiw	r26, 0x01	; 1
    266a:	1c 91       	ld	r17, X
    266c:	84 30       	cpi	r24, 0x04	; 4
    266e:	99 f5       	brne	.+102    	; 0x26d6 <__fpcmp_parts_f+0x88>
    2670:	81 81       	ldd	r24, Z+1	; 0x01
    2672:	68 2f       	mov	r22, r24
    2674:	70 e0       	ldi	r23, 0x00	; 0
    2676:	61 1b       	sub	r22, r17
    2678:	71 09       	sbc	r23, r1
    267a:	3f c0       	rjmp	.+126    	; 0x26fa <__fpcmp_parts_f+0xac>
    267c:	84 30       	cpi	r24, 0x04	; 4
    267e:	21 f0       	breq	.+8      	; 0x2688 <__fpcmp_parts_f+0x3a>
    2680:	92 30       	cpi	r25, 0x02	; 2
    2682:	31 f4       	brne	.+12     	; 0x2690 <__fpcmp_parts_f+0x42>
    2684:	82 30       	cpi	r24, 0x02	; 2
    2686:	b9 f1       	breq	.+110    	; 0x26f6 <__fpcmp_parts_f+0xa8>
    2688:	81 81       	ldd	r24, Z+1	; 0x01
    268a:	88 23       	and	r24, r24
    268c:	89 f1       	breq	.+98     	; 0x26f0 <__fpcmp_parts_f+0xa2>
    268e:	2d c0       	rjmp	.+90     	; 0x26ea <__fpcmp_parts_f+0x9c>
    2690:	11 96       	adiw	r26, 0x01	; 1
    2692:	1c 91       	ld	r17, X
    2694:	11 97       	sbiw	r26, 0x01	; 1
    2696:	82 30       	cpi	r24, 0x02	; 2
    2698:	f1 f0       	breq	.+60     	; 0x26d6 <__fpcmp_parts_f+0x88>
    269a:	81 81       	ldd	r24, Z+1	; 0x01
    269c:	18 17       	cp	r17, r24
    269e:	d9 f4       	brne	.+54     	; 0x26d6 <__fpcmp_parts_f+0x88>
    26a0:	12 96       	adiw	r26, 0x02	; 2
    26a2:	2d 91       	ld	r18, X+
    26a4:	3c 91       	ld	r19, X
    26a6:	13 97       	sbiw	r26, 0x03	; 3
    26a8:	82 81       	ldd	r24, Z+2	; 0x02
    26aa:	93 81       	ldd	r25, Z+3	; 0x03
    26ac:	82 17       	cp	r24, r18
    26ae:	93 07       	cpc	r25, r19
    26b0:	94 f0       	brlt	.+36     	; 0x26d6 <__fpcmp_parts_f+0x88>
    26b2:	28 17       	cp	r18, r24
    26b4:	39 07       	cpc	r19, r25
    26b6:	bc f0       	brlt	.+46     	; 0x26e6 <__fpcmp_parts_f+0x98>
    26b8:	14 96       	adiw	r26, 0x04	; 4
    26ba:	8d 91       	ld	r24, X+
    26bc:	9d 91       	ld	r25, X+
    26be:	0d 90       	ld	r0, X+
    26c0:	bc 91       	ld	r27, X
    26c2:	a0 2d       	mov	r26, r0
    26c4:	24 81       	ldd	r18, Z+4	; 0x04
    26c6:	35 81       	ldd	r19, Z+5	; 0x05
    26c8:	46 81       	ldd	r20, Z+6	; 0x06
    26ca:	57 81       	ldd	r21, Z+7	; 0x07
    26cc:	28 17       	cp	r18, r24
    26ce:	39 07       	cpc	r19, r25
    26d0:	4a 07       	cpc	r20, r26
    26d2:	5b 07       	cpc	r21, r27
    26d4:	18 f4       	brcc	.+6      	; 0x26dc <__fpcmp_parts_f+0x8e>
    26d6:	11 23       	and	r17, r17
    26d8:	41 f0       	breq	.+16     	; 0x26ea <__fpcmp_parts_f+0x9c>
    26da:	0a c0       	rjmp	.+20     	; 0x26f0 <__fpcmp_parts_f+0xa2>
    26dc:	82 17       	cp	r24, r18
    26de:	93 07       	cpc	r25, r19
    26e0:	a4 07       	cpc	r26, r20
    26e2:	b5 07       	cpc	r27, r21
    26e4:	40 f4       	brcc	.+16     	; 0x26f6 <__fpcmp_parts_f+0xa8>
    26e6:	11 23       	and	r17, r17
    26e8:	19 f0       	breq	.+6      	; 0x26f0 <__fpcmp_parts_f+0xa2>
    26ea:	61 e0       	ldi	r22, 0x01	; 1
    26ec:	70 e0       	ldi	r23, 0x00	; 0
    26ee:	05 c0       	rjmp	.+10     	; 0x26fa <__fpcmp_parts_f+0xac>
    26f0:	6f ef       	ldi	r22, 0xFF	; 255
    26f2:	7f ef       	ldi	r23, 0xFF	; 255
    26f4:	02 c0       	rjmp	.+4      	; 0x26fa <__fpcmp_parts_f+0xac>
    26f6:	60 e0       	ldi	r22, 0x00	; 0
    26f8:	70 e0       	ldi	r23, 0x00	; 0
    26fa:	cb 01       	movw	r24, r22
    26fc:	1f 91       	pop	r17
    26fe:	08 95       	ret

00002700 <__udivmodhi4>:
    2700:	aa 1b       	sub	r26, r26
    2702:	bb 1b       	sub	r27, r27
    2704:	51 e1       	ldi	r21, 0x11	; 17
    2706:	07 c0       	rjmp	.+14     	; 0x2716 <__udivmodhi4_ep>

00002708 <__udivmodhi4_loop>:
    2708:	aa 1f       	adc	r26, r26
    270a:	bb 1f       	adc	r27, r27
    270c:	a6 17       	cp	r26, r22
    270e:	b7 07       	cpc	r27, r23
    2710:	10 f0       	brcs	.+4      	; 0x2716 <__udivmodhi4_ep>
    2712:	a6 1b       	sub	r26, r22
    2714:	b7 0b       	sbc	r27, r23

00002716 <__udivmodhi4_ep>:
    2716:	88 1f       	adc	r24, r24
    2718:	99 1f       	adc	r25, r25
    271a:	5a 95       	dec	r21
    271c:	a9 f7       	brne	.-22     	; 0x2708 <__udivmodhi4_loop>
    271e:	80 95       	com	r24
    2720:	90 95       	com	r25
    2722:	bc 01       	movw	r22, r24
    2724:	cd 01       	movw	r24, r26
    2726:	08 95       	ret

00002728 <__prologue_saves__>:
    2728:	2f 92       	push	r2
    272a:	3f 92       	push	r3
    272c:	4f 92       	push	r4
    272e:	5f 92       	push	r5
    2730:	6f 92       	push	r6
    2732:	7f 92       	push	r7
    2734:	8f 92       	push	r8
    2736:	9f 92       	push	r9
    2738:	af 92       	push	r10
    273a:	bf 92       	push	r11
    273c:	cf 92       	push	r12
    273e:	df 92       	push	r13
    2740:	ef 92       	push	r14
    2742:	ff 92       	push	r15
    2744:	0f 93       	push	r16
    2746:	1f 93       	push	r17
    2748:	cf 93       	push	r28
    274a:	df 93       	push	r29
    274c:	cd b7       	in	r28, 0x3d	; 61
    274e:	de b7       	in	r29, 0x3e	; 62
    2750:	ca 1b       	sub	r28, r26
    2752:	db 0b       	sbc	r29, r27
    2754:	0f b6       	in	r0, 0x3f	; 63
    2756:	f8 94       	cli
    2758:	de bf       	out	0x3e, r29	; 62
    275a:	0f be       	out	0x3f, r0	; 63
    275c:	cd bf       	out	0x3d, r28	; 61
    275e:	09 94       	ijmp

00002760 <__epilogue_restores__>:
    2760:	2a 88       	ldd	r2, Y+18	; 0x12
    2762:	39 88       	ldd	r3, Y+17	; 0x11
    2764:	48 88       	ldd	r4, Y+16	; 0x10
    2766:	5f 84       	ldd	r5, Y+15	; 0x0f
    2768:	6e 84       	ldd	r6, Y+14	; 0x0e
    276a:	7d 84       	ldd	r7, Y+13	; 0x0d
    276c:	8c 84       	ldd	r8, Y+12	; 0x0c
    276e:	9b 84       	ldd	r9, Y+11	; 0x0b
    2770:	aa 84       	ldd	r10, Y+10	; 0x0a
    2772:	b9 84       	ldd	r11, Y+9	; 0x09
    2774:	c8 84       	ldd	r12, Y+8	; 0x08
    2776:	df 80       	ldd	r13, Y+7	; 0x07
    2778:	ee 80       	ldd	r14, Y+6	; 0x06
    277a:	fd 80       	ldd	r15, Y+5	; 0x05
    277c:	0c 81       	ldd	r16, Y+4	; 0x04
    277e:	1b 81       	ldd	r17, Y+3	; 0x03
    2780:	aa 81       	ldd	r26, Y+2	; 0x02
    2782:	b9 81       	ldd	r27, Y+1	; 0x01
    2784:	ce 0f       	add	r28, r30
    2786:	d1 1d       	adc	r29, r1
    2788:	0f b6       	in	r0, 0x3f	; 63
    278a:	f8 94       	cli
    278c:	de bf       	out	0x3e, r29	; 62
    278e:	0f be       	out	0x3f, r0	; 63
    2790:	cd bf       	out	0x3d, r28	; 61
    2792:	ed 01       	movw	r28, r26
    2794:	08 95       	ret

00002796 <_exit>:
    2796:	f8 94       	cli

00002798 <__stop_program>:
    2798:	ff cf       	rjmp	.-2      	; 0x2798 <__stop_program>
